; Listing generated by Microsoft (R) Optimizing Compiler Version 18.00.30501.0 

	TITLE	E:\GitHub\Mso_Code\4DyuchiNET_Latest\connect_que.cpp
	.686P
	.XMM
	include listing.inc
	.model	flat

INCLUDELIB LIBCMT
INCLUDELIB OLDNAMES

PUBLIC	?Initialize@CConnectQue@@QAEHK@Z		; CConnectQue::Initialize
PUBLIC	?PushConnectItem@CConnectQue@@QAEHPAUCONNECT_ITEM@@@Z ; CConnectQue::PushConnectItem
PUBLIC	?GetConnectItem@CConnectQue@@QAEPAUCONNECT_ITEM@@K@Z ; CConnectQue::GetConnectItem
PUBLIC	??0CConnectQue@@QAE@XZ				; CConnectQue::CConnectQue
PUBLIC	??1CConnectQue@@QAE@XZ				; CConnectQue::~CConnectQue
EXTRN	??2@YAPAXI@Z:PROC				; operator new
EXTRN	??3@YAXPAX@Z:PROC				; operator delete
EXTRN	_memset:PROC
; Function compile flags: /Ogtp
;	COMDAT ??1CConnectQue@@QAE@XZ
_TEXT	SEGMENT
??1CConnectQue@@QAE@XZ PROC				; CConnectQue::~CConnectQue, COMDAT
; _this$ = ecx
; File e:\github\mso_code\4dyuchinet_latest\connect_que.cpp
; Line 41
  00000	56		 push	 esi
  00001	8b f1		 mov	 esi, ecx
; Line 42
  00003	8b 06		 mov	 eax, DWORD PTR [esi]
  00005	85 c0		 test	 eax, eax
  00007	74 0f		 je	 SHORT $LN1@CConnectQu
; Line 44
  00009	50		 push	 eax
  0000a	e8 00 00 00 00	 call	 ??3@YAXPAX@Z		; operator delete
  0000f	83 c4 04	 add	 esp, 4
; Line 45
  00012	c7 06 00 00 00
	00		 mov	 DWORD PTR [esi], 0
$LN1@CConnectQu:
  00018	5e		 pop	 esi
; Line 48
  00019	c3		 ret	 0
??1CConnectQue@@QAE@XZ ENDP				; CConnectQue::~CConnectQue
_TEXT	ENDS
; Function compile flags: /Ogtp
;	COMDAT ??0CConnectQue@@QAE@XZ
_TEXT	SEGMENT
??0CConnectQue@@QAE@XZ PROC				; CConnectQue::CConnectQue, COMDAT
; _this$ = ecx
; File e:\github\mso_code\4dyuchinet_latest\connect_que.cpp
; Line 7
  00000	c7 01 00 00 00
	00		 mov	 DWORD PTR [ecx], 0
; Line 11
  00006	8b c1		 mov	 eax, ecx
  00008	c7 41 04 00 00
	00 00		 mov	 DWORD PTR [ecx+4], 0
  0000f	c7 41 08 00 00
	00 00		 mov	 DWORD PTR [ecx+8], 0
  00016	c3		 ret	 0
??0CConnectQue@@QAE@XZ ENDP				; CConnectQue::CConnectQue
_TEXT	ENDS
; Function compile flags: /Ogtp
;	COMDAT ?GetConnectItem@CConnectQue@@QAEPAUCONNECT_ITEM@@K@Z
_TEXT	SEGMENT
_dwIndex$ = 8						; size = 4
?GetConnectItem@CConnectQue@@QAEPAUCONNECT_ITEM@@K@Z PROC ; CConnectQue::GetConnectItem, COMDAT
; _this$ = ecx
; File e:\github\mso_code\4dyuchinet_latest\connect_que.cpp
; Line 23
  00000	55		 push	 ebp
  00001	8b ec		 mov	 ebp, esp
; Line 24
  00003	8b 45 08	 mov	 eax, DWORD PTR _dwIndex$[ebp]
  00006	8b d1		 mov	 edx, ecx
  00008	3b 42 04	 cmp	 eax, DWORD PTR [edx+4]
  0000b	72 06		 jb	 SHORT $LN1@GetConnect
; Line 25
  0000d	33 c0		 xor	 eax, eax
; Line 29
  0000f	5d		 pop	 ebp
  00010	c2 04 00	 ret	 4
$LN1@GetConnect:
; Line 28
  00013	8d 0c c0	 lea	 ecx, DWORD PTR [eax+eax*8]
  00016	8b 02		 mov	 eax, DWORD PTR [edx]
  00018	8d 04 88	 lea	 eax, DWORD PTR [eax+ecx*4]
; Line 29
  0001b	5d		 pop	 ebp
  0001c	c2 04 00	 ret	 4
?GetConnectItem@CConnectQue@@QAEPAUCONNECT_ITEM@@K@Z ENDP ; CConnectQue::GetConnectItem
_TEXT	ENDS
; Function compile flags: /Ogtp
;	COMDAT ?PushConnectItem@CConnectQue@@QAEHPAUCONNECT_ITEM@@@Z
_TEXT	SEGMENT
_pItem$ = 8						; size = 4
?PushConnectItem@CConnectQue@@QAEHPAUCONNECT_ITEM@@@Z PROC ; CConnectQue::PushConnectItem, COMDAT
; _this$ = ecx
; File e:\github\mso_code\4dyuchinet_latest\connect_que.cpp
; Line 13
  00000	55		 push	 ebp
  00001	8b ec		 mov	 ebp, esp
  00003	8b d1		 mov	 edx, ecx
; Line 14
  00005	8b 42 04	 mov	 eax, DWORD PTR [edx+4]
  00008	3b 42 08	 cmp	 eax, DWORD PTR [edx+8]
  0000b	72 06		 jb	 SHORT $LN1@PushConnec
; Line 15
  0000d	33 c0		 xor	 eax, eax
; Line 21
  0000f	5d		 pop	 ebp
  00010	c2 04 00	 ret	 4
$LN1@PushConnec:
; Line 17
  00013	8d 0c c0	 lea	 ecx, DWORD PTR [eax+eax*8]
  00016	8b 02		 mov	 eax, DWORD PTR [edx]
  00018	8d 0c 88	 lea	 ecx, DWORD PTR [eax+ecx*4]
  0001b	8b 45 08	 mov	 eax, DWORD PTR _pItem$[ebp]
  0001e	f3 0f 6f 00	 movdqu	 xmm0, XMMWORD PTR [eax]
  00022	f3 0f 7f 01	 movdqu	 XMMWORD PTR [ecx], xmm0
  00026	f3 0f 6f 40 10	 movdqu	 xmm0, XMMWORD PTR [eax+16]
  0002b	f3 0f 7f 41 10	 movdqu	 XMMWORD PTR [ecx+16], xmm0
  00030	8b 40 20	 mov	 eax, DWORD PTR [eax+32]
  00033	89 41 20	 mov	 DWORD PTR [ecx+32], eax
; Line 20
  00036	b8 01 00 00 00	 mov	 eax, 1
  0003b	ff 42 04	 inc	 DWORD PTR [edx+4]
; Line 21
  0003e	5d		 pop	 ebp
  0003f	c2 04 00	 ret	 4
?PushConnectItem@CConnectQue@@QAEHPAUCONNECT_ITEM@@@Z ENDP ; CConnectQue::PushConnectItem
_TEXT	ENDS
; Function compile flags: /Ogtp
;	COMDAT ?Initialize@CConnectQue@@QAEHK@Z
_TEXT	SEGMENT
_dwMaxConnectAtSameTime$ = 8				; size = 4
?Initialize@CConnectQue@@QAEHK@Z PROC			; CConnectQue::Initialize, COMDAT
; _this$ = ecx
; File e:\github\mso_code\4dyuchinet_latest\connect_que.cpp
; Line 32
  00000	55		 push	 ebp
  00001	8b ec		 mov	 ebp, esp
; Line 33
  00003	8b 45 08	 mov	 eax, DWORD PTR _dwMaxConnectAtSameTime$[ebp]
; Line 34
  00006	ba 24 00 00 00	 mov	 edx, 36			; 00000024H
  0000b	56		 push	 esi
  0000c	8b f1		 mov	 esi, ecx
  0000e	33 c9		 xor	 ecx, ecx
  00010	89 46 08	 mov	 DWORD PTR [esi+8], eax
  00013	f7 e2		 mul	 edx
  00015	0f 90 c1	 seto	 cl
  00018	f7 d9		 neg	 ecx
  0001a	0b c8		 or	 ecx, eax
  0001c	51		 push	 ecx
  0001d	e8 00 00 00 00	 call	 ??2@YAPAXI@Z		; operator new
; Line 35
  00022	8b 4e 08	 mov	 ecx, DWORD PTR [esi+8]
  00025	89 06		 mov	 DWORD PTR [esi], eax
  00027	8d 0c c9	 lea	 ecx, DWORD PTR [ecx+ecx*8]
  0002a	c1 e1 02	 shl	 ecx, 2
  0002d	51		 push	 ecx
  0002e	6a 00		 push	 0
  00030	50		 push	 eax
  00031	e8 00 00 00 00	 call	 _memset
  00036	83 c4 10	 add	 esp, 16			; 00000010H
; Line 37
  00039	b8 01 00 00 00	 mov	 eax, 1
  0003e	5e		 pop	 esi
; Line 38
  0003f	5d		 pop	 ebp
  00040	c2 04 00	 ret	 4
?Initialize@CConnectQue@@QAEHK@Z ENDP			; CConnectQue::Initialize
_TEXT	ENDS
END
