; Listing generated by Microsoft (R) Optimizing Compiler Version 18.00.30501.0 

	TITLE	E:\GitHub\Mso_Code\4DyuchiNET_Latest\dllmain.cpp
	.686P
	.XMM
	include listing.inc
	.model	flat

INCLUDELIB LIBCMT
INCLUDELIB OLDNAMES

PUBLIC	?g_hDllInst@@3PAUHINSTANCE__@@A			; g_hDllInst
PUBLIC	_CLSID_4DyuchiNET
PUBLIC	_IID_4DyuchiNET
_BSS	SEGMENT
?g_hDllInst@@3PAUHINSTANCE__@@A DD 01H DUP (?)		; g_hDllInst
_BSS	ENDS
;	COMDAT _IID_4DyuchiNET
CONST	SEGMENT
_IID_4DyuchiNET DD 0d41bd0f8H
	DW	07bfH
	DW	04dbcH
	DB	08aH
	DB	0d3H
	DB	0a3H
	DB	052H
	DB	04cH
	DB	0c4H
	DB	03eH
	DB	05eH
CONST	ENDS
;	COMDAT _CLSID_4DyuchiNET
CONST	SEGMENT
_CLSID_4DyuchiNET DD 011c02a88H
	DW	08bf9H
	DW	04863H
	DB	0a7H
	DB	0deH
	DB	01bH
	DB	0f6H
	DB	06dH
	DB	060H
	DB	0cbH
	DB	0a3H
CONST	ENDS
PUBLIC	_IsEqualGUID
PUBLIC	_==
PUBLIC	_DllGetClassObject@12
PUBLIC	_DllCanUnloadNow@0
PUBLIC	_DllMain@12
PUBLIC	?SetRegKeyValue@@YAHPA_W00@Z			; SetRegKeyValue
PUBLIC	?AddRegNamedValue@@YAHPA_W000@Z			; AddRegNamedValue
PUBLIC	_DllRegisterServer@0
PUBLIC	_DllUnregisterServer@0
PUBLIC	??_C@_13FPGAJAPJ@?$AA?2?$AA?$AA@		; `string'
PUBLIC	??_C@_1O@FHBGLCIO@?$AAC?$AAL?$AAS?$AAI?$AAD?$AA?2?$AA?$AA@ ; `string'
PUBLIC	??_C@_1EC@EOEMEEJF@?$AAD?$AAL?$AAL?$AA?5?$AAN?$AAE?$AAT?$AAW?$AAO?$AAR?$AAK?$AA?5?$AAC?$AAo?$AAm?$AAp?$AAo?$AAn?$AAe?$AAn?$AAt?$AA?5?$AA?9?$AA?5?$AAb?$AAy?$AA?5?$AAy?$AAu?$AAc?$AAh?$AAi@ ; `string'
PUBLIC	??_C@_1BG@IKBEDGEE@?$AAC?$AAT?$AAS?$AA?4?$AAC?$AAO?$AAD?$AAE?$AA?4?$AA1?$AA?$AA@ ; `string'
PUBLIC	??_C@_1M@KANJNLFF@?$AAC?$AAL?$AAS?$AAI?$AAD?$AA?$AA@ ; `string'
PUBLIC	??_C@_1CO@OAKKINGO@?$AAC?$AAT?$AAS?$AA?4?$AAC?$AAL?$AAS?$AAI?$AAD?$AA_?$AA4?$AAD?$AAy?$AAu?$AAc?$AAh?$AAi?$AAN?$AAE?$AAT?$AA?4?$AA1?$AA?$AA@ ; `string'
PUBLIC	??_C@_1CK@IOCOGGLI@?$AAC?$AAT?$AAS?$AA?4?$AAC?$AAL?$AAS?$AAI?$AAD?$AA_?$AA4?$AAD?$AAy?$AAu?$AAc?$AAh?$AAi?$AAN?$AAE?$AAT?$AA?$AA@ ; `string'
PUBLIC	??_C@_1O@FHIPPLOM@?$AAC?$AAu?$AAr?$AAV?$AAe?$AAr?$AA?$AA@ ; `string'
PUBLIC	??_C@_1O@HNNDAFP@?$AAP?$AAr?$AAo?$AAg?$AAI?$AAD?$AA?$AA@ ; `string'
PUBLIC	??_C@_1DC@MIAMMDBM@?$AAV?$AAe?$AAr?$AAs?$AAi?$AAo?$AAn?$AAI?$AAn?$AAd?$AAe?$AAp?$AAe?$AAn?$AAd?$AAe?$AAn?$AAt?$AAP?$AAr?$AAo?$AAg?$AAI?$AAD?$AA?$AA@ ; `string'
PUBLIC	??_C@_1BM@NDCGEDGI@?$AAN?$AAo?$AAt?$AAI?$AAn?$AAs?$AAe?$AAr?$AAt?$AAa?$AAb?$AAl?$AAe?$AA?$AA@ ; `string'
PUBLIC	??_C@_1BO@MNKPAJEP@?$AAI?$AAn?$AAp?$AAr?$AAo?$AAc?$AAS?$AAe?$AAr?$AAv?$AAe?$AAr?$AA3?$AA2?$AA?$AA@ ; `string'
PUBLIC	??_C@_1BE@LIAIMCOB@?$AAA?$AAp?$AAa?$AAr?$AAt?$AAm?$AAe?$AAn?$AAt?$AA?$AA@ ; `string'
PUBLIC	??_C@_1BO@NMEHGCBD@?$AAT?$AAh?$AAr?$AAe?$AAa?$AAd?$AAi?$AAn?$AAg?$AAM?$AAo?$AAd?$AAe?$AAl?$AA?$AA@ ; `string'
PUBLIC	??_C@_1DI@HHMNMAOE@?$AAC?$AAT?$AAS?$AA?4?$AAC?$AAL?$AAS?$AAI?$AAD?$AA_?$AA4?$AAD?$AAy?$AAu?$AAc?$AAh?$AAi?$AAN?$AAE?$AAT?$AA?2?$AAC?$AAu?$AAr?$AAV?$AAe?$AAr?$AA?$AA@ ; `string'
PUBLIC	??_C@_1DG@BMINCDKK@?$AAC?$AAT?$AAS?$AA?4?$AAC?$AAL?$AAS?$AAI?$AAD?$AA_?$AA4?$AAD?$AAy?$AAu?$AAc?$AAh?$AAi?$AAN?$AAE?$AAT?$AA?2?$AAC?$AAL?$AAS?$AAI?$AAD?$AA?$AA@ ; `string'
PUBLIC	??_C@_1DK@NAFHGEAI@?$AAC?$AAT?$AAS?$AA?4?$AAC?$AAL?$AAS?$AAI?$AAD?$AA_?$AA4?$AAD?$AAy?$AAu?$AAc?$AAh?$AAi?$AAN?$AAE?$AAT?$AA?4?$AA1?$AA?2?$AAC?$AAL?$AAS?$AAI?$AAD?$AA?$AA@ ; `string'
PUBLIC	??_C@_1M@DFKENGJN@?$AA?$CF?$AAs?$AA?2?$AA?$CF?$AAs?$AA?$AA@ ; `string'
EXTRN	??2@YAPAXI@Z:PROC				; operator new
EXTRN	??3@YAXPAX@Z:PROC				; operator delete
EXTRN	__imp__GetModuleFileNameW@12:PROC
EXTRN	__imp__lstrcpyW@8:PROC
EXTRN	__imp__lstrcatW@8:PROC
EXTRN	__imp__lstrlenW@4:PROC
EXTRN	__imp__wsprintfW:PROC
EXTRN	__imp__RegCloseKey@4:PROC
EXTRN	__imp__RegCreateKeyExW@36:PROC
EXTRN	__imp__RegDeleteKeyW@8:PROC
EXTRN	__imp__RegOpenKeyExW@20:PROC
EXTRN	__imp__RegSetValueExW@24:PROC
EXTRN	__imp__StringFromGUID2@12:PROC
EXTRN	??0CF4DyuchiNET@@QAE@XZ:PROC			; CF4DyuchiNET::CF4DyuchiNET
EXTRN	@__security_check_cookie@4:PROC
EXTRN	___security_cookie:DWORD
;	COMDAT ??_C@_1M@DFKENGJN@?$AA?$CF?$AAs?$AA?2?$AA?$CF?$AAs?$AA?$AA@
CONST	SEGMENT
??_C@_1M@DFKENGJN@?$AA?$CF?$AAs?$AA?2?$AA?$CF?$AAs?$AA?$AA@ DB '%', 00H, 's'
	DB	00H, '\', 00H, '%', 00H, 's', 00H, 00H, 00H	; `string'
CONST	ENDS
;	COMDAT ??_C@_1DK@NAFHGEAI@?$AAC?$AAT?$AAS?$AA?4?$AAC?$AAL?$AAS?$AAI?$AAD?$AA_?$AA4?$AAD?$AAy?$AAu?$AAc?$AAh?$AAi?$AAN?$AAE?$AAT?$AA?4?$AA1?$AA?2?$AAC?$AAL?$AAS?$AAI?$AAD?$AA?$AA@
CONST	SEGMENT
??_C@_1DK@NAFHGEAI@?$AAC?$AAT?$AAS?$AA?4?$AAC?$AAL?$AAS?$AAI?$AAD?$AA_?$AA4?$AAD?$AAy?$AAu?$AAc?$AAh?$AAi?$AAN?$AAE?$AAT?$AA?4?$AA1?$AA?2?$AAC?$AAL?$AAS?$AAI?$AAD?$AA?$AA@ DB 'C'
	DB	00H, 'T', 00H, 'S', 00H, '.', 00H, 'C', 00H, 'L', 00H, 'S', 00H
	DB	'I', 00H, 'D', 00H, '_', 00H, '4', 00H, 'D', 00H, 'y', 00H, 'u'
	DB	00H, 'c', 00H, 'h', 00H, 'i', 00H, 'N', 00H, 'E', 00H, 'T', 00H
	DB	'.', 00H, '1', 00H, '\', 00H, 'C', 00H, 'L', 00H, 'S', 00H, 'I'
	DB	00H, 'D', 00H, 00H, 00H			; `string'
CONST	ENDS
;	COMDAT ??_C@_1DG@BMINCDKK@?$AAC?$AAT?$AAS?$AA?4?$AAC?$AAL?$AAS?$AAI?$AAD?$AA_?$AA4?$AAD?$AAy?$AAu?$AAc?$AAh?$AAi?$AAN?$AAE?$AAT?$AA?2?$AAC?$AAL?$AAS?$AAI?$AAD?$AA?$AA@
CONST	SEGMENT
??_C@_1DG@BMINCDKK@?$AAC?$AAT?$AAS?$AA?4?$AAC?$AAL?$AAS?$AAI?$AAD?$AA_?$AA4?$AAD?$AAy?$AAu?$AAc?$AAh?$AAi?$AAN?$AAE?$AAT?$AA?2?$AAC?$AAL?$AAS?$AAI?$AAD?$AA?$AA@ DB 'C'
	DB	00H, 'T', 00H, 'S', 00H, '.', 00H, 'C', 00H, 'L', 00H, 'S', 00H
	DB	'I', 00H, 'D', 00H, '_', 00H, '4', 00H, 'D', 00H, 'y', 00H, 'u'
	DB	00H, 'c', 00H, 'h', 00H, 'i', 00H, 'N', 00H, 'E', 00H, 'T', 00H
	DB	'\', 00H, 'C', 00H, 'L', 00H, 'S', 00H, 'I', 00H, 'D', 00H, 00H
	DB	00H						; `string'
CONST	ENDS
;	COMDAT ??_C@_1DI@HHMNMAOE@?$AAC?$AAT?$AAS?$AA?4?$AAC?$AAL?$AAS?$AAI?$AAD?$AA_?$AA4?$AAD?$AAy?$AAu?$AAc?$AAh?$AAi?$AAN?$AAE?$AAT?$AA?2?$AAC?$AAu?$AAr?$AAV?$AAe?$AAr?$AA?$AA@
CONST	SEGMENT
??_C@_1DI@HHMNMAOE@?$AAC?$AAT?$AAS?$AA?4?$AAC?$AAL?$AAS?$AAI?$AAD?$AA_?$AA4?$AAD?$AAy?$AAu?$AAc?$AAh?$AAi?$AAN?$AAE?$AAT?$AA?2?$AAC?$AAu?$AAr?$AAV?$AAe?$AAr?$AA?$AA@ DB 'C'
	DB	00H, 'T', 00H, 'S', 00H, '.', 00H, 'C', 00H, 'L', 00H, 'S', 00H
	DB	'I', 00H, 'D', 00H, '_', 00H, '4', 00H, 'D', 00H, 'y', 00H, 'u'
	DB	00H, 'c', 00H, 'h', 00H, 'i', 00H, 'N', 00H, 'E', 00H, 'T', 00H
	DB	'\', 00H, 'C', 00H, 'u', 00H, 'r', 00H, 'V', 00H, 'e', 00H, 'r'
	DB	00H, 00H, 00H				; `string'
CONST	ENDS
;	COMDAT ??_C@_1BO@NMEHGCBD@?$AAT?$AAh?$AAr?$AAe?$AAa?$AAd?$AAi?$AAn?$AAg?$AAM?$AAo?$AAd?$AAe?$AAl?$AA?$AA@
CONST	SEGMENT
??_C@_1BO@NMEHGCBD@?$AAT?$AAh?$AAr?$AAe?$AAa?$AAd?$AAi?$AAn?$AAg?$AAM?$AAo?$AAd?$AAe?$AAl?$AA?$AA@ DB 'T'
	DB	00H, 'h', 00H, 'r', 00H, 'e', 00H, 'a', 00H, 'd', 00H, 'i', 00H
	DB	'n', 00H, 'g', 00H, 'M', 00H, 'o', 00H, 'd', 00H, 'e', 00H, 'l'
	DB	00H, 00H, 00H				; `string'
CONST	ENDS
;	COMDAT ??_C@_1BE@LIAIMCOB@?$AAA?$AAp?$AAa?$AAr?$AAt?$AAm?$AAe?$AAn?$AAt?$AA?$AA@
CONST	SEGMENT
??_C@_1BE@LIAIMCOB@?$AAA?$AAp?$AAa?$AAr?$AAt?$AAm?$AAe?$AAn?$AAt?$AA?$AA@ DB 'A'
	DB	00H, 'p', 00H, 'a', 00H, 'r', 00H, 't', 00H, 'm', 00H, 'e', 00H
	DB	'n', 00H, 't', 00H, 00H, 00H			; `string'
CONST	ENDS
;	COMDAT ??_C@_1BO@MNKPAJEP@?$AAI?$AAn?$AAp?$AAr?$AAo?$AAc?$AAS?$AAe?$AAr?$AAv?$AAe?$AAr?$AA3?$AA2?$AA?$AA@
CONST	SEGMENT
??_C@_1BO@MNKPAJEP@?$AAI?$AAn?$AAp?$AAr?$AAo?$AAc?$AAS?$AAe?$AAr?$AAv?$AAe?$AAr?$AA3?$AA2?$AA?$AA@ DB 'I'
	DB	00H, 'n', 00H, 'p', 00H, 'r', 00H, 'o', 00H, 'c', 00H, 'S', 00H
	DB	'e', 00H, 'r', 00H, 'v', 00H, 'e', 00H, 'r', 00H, '3', 00H, '2'
	DB	00H, 00H, 00H				; `string'
CONST	ENDS
;	COMDAT ??_C@_1BM@NDCGEDGI@?$AAN?$AAo?$AAt?$AAI?$AAn?$AAs?$AAe?$AAr?$AAt?$AAa?$AAb?$AAl?$AAe?$AA?$AA@
CONST	SEGMENT
??_C@_1BM@NDCGEDGI@?$AAN?$AAo?$AAt?$AAI?$AAn?$AAs?$AAe?$AAr?$AAt?$AAa?$AAb?$AAl?$AAe?$AA?$AA@ DB 'N'
	DB	00H, 'o', 00H, 't', 00H, 'I', 00H, 'n', 00H, 's', 00H, 'e', 00H
	DB	'r', 00H, 't', 00H, 'a', 00H, 'b', 00H, 'l', 00H, 'e', 00H, 00H
	DB	00H						; `string'
CONST	ENDS
;	COMDAT ??_C@_1DC@MIAMMDBM@?$AAV?$AAe?$AAr?$AAs?$AAi?$AAo?$AAn?$AAI?$AAn?$AAd?$AAe?$AAp?$AAe?$AAn?$AAd?$AAe?$AAn?$AAt?$AAP?$AAr?$AAo?$AAg?$AAI?$AAD?$AA?$AA@
CONST	SEGMENT
??_C@_1DC@MIAMMDBM@?$AAV?$AAe?$AAr?$AAs?$AAi?$AAo?$AAn?$AAI?$AAn?$AAd?$AAe?$AAp?$AAe?$AAn?$AAd?$AAe?$AAn?$AAt?$AAP?$AAr?$AAo?$AAg?$AAI?$AAD?$AA?$AA@ DB 'V'
	DB	00H, 'e', 00H, 'r', 00H, 's', 00H, 'i', 00H, 'o', 00H, 'n', 00H
	DB	'I', 00H, 'n', 00H, 'd', 00H, 'e', 00H, 'p', 00H, 'e', 00H, 'n'
	DB	00H, 'd', 00H, 'e', 00H, 'n', 00H, 't', 00H, 'P', 00H, 'r', 00H
	DB	'o', 00H, 'g', 00H, 'I', 00H, 'D', 00H, 00H, 00H ; `string'
CONST	ENDS
;	COMDAT ??_C@_1O@HNNDAFP@?$AAP?$AAr?$AAo?$AAg?$AAI?$AAD?$AA?$AA@
CONST	SEGMENT
??_C@_1O@HNNDAFP@?$AAP?$AAr?$AAo?$AAg?$AAI?$AAD?$AA?$AA@ DB 'P', 00H, 'r', 00H
	DB	'o', 00H, 'g', 00H, 'I', 00H, 'D', 00H, 00H, 00H ; `string'
CONST	ENDS
;	COMDAT ??_C@_1O@FHIPPLOM@?$AAC?$AAu?$AAr?$AAV?$AAe?$AAr?$AA?$AA@
CONST	SEGMENT
??_C@_1O@FHIPPLOM@?$AAC?$AAu?$AAr?$AAV?$AAe?$AAr?$AA?$AA@ DB 'C', 00H, 'u'
	DB	00H, 'r', 00H, 'V', 00H, 'e', 00H, 'r', 00H, 00H, 00H ; `string'
CONST	ENDS
;	COMDAT ??_C@_1CK@IOCOGGLI@?$AAC?$AAT?$AAS?$AA?4?$AAC?$AAL?$AAS?$AAI?$AAD?$AA_?$AA4?$AAD?$AAy?$AAu?$AAc?$AAh?$AAi?$AAN?$AAE?$AAT?$AA?$AA@
CONST	SEGMENT
??_C@_1CK@IOCOGGLI@?$AAC?$AAT?$AAS?$AA?4?$AAC?$AAL?$AAS?$AAI?$AAD?$AA_?$AA4?$AAD?$AAy?$AAu?$AAc?$AAh?$AAi?$AAN?$AAE?$AAT?$AA?$AA@ DB 'C'
	DB	00H, 'T', 00H, 'S', 00H, '.', 00H, 'C', 00H, 'L', 00H, 'S', 00H
	DB	'I', 00H, 'D', 00H, '_', 00H, '4', 00H, 'D', 00H, 'y', 00H, 'u'
	DB	00H, 'c', 00H, 'h', 00H, 'i', 00H, 'N', 00H, 'E', 00H, 'T', 00H
	DB	00H, 00H					; `string'
CONST	ENDS
;	COMDAT ??_C@_1CO@OAKKINGO@?$AAC?$AAT?$AAS?$AA?4?$AAC?$AAL?$AAS?$AAI?$AAD?$AA_?$AA4?$AAD?$AAy?$AAu?$AAc?$AAh?$AAi?$AAN?$AAE?$AAT?$AA?4?$AA1?$AA?$AA@
CONST	SEGMENT
??_C@_1CO@OAKKINGO@?$AAC?$AAT?$AAS?$AA?4?$AAC?$AAL?$AAS?$AAI?$AAD?$AA_?$AA4?$AAD?$AAy?$AAu?$AAc?$AAh?$AAi?$AAN?$AAE?$AAT?$AA?4?$AA1?$AA?$AA@ DB 'C'
	DB	00H, 'T', 00H, 'S', 00H, '.', 00H, 'C', 00H, 'L', 00H, 'S', 00H
	DB	'I', 00H, 'D', 00H, '_', 00H, '4', 00H, 'D', 00H, 'y', 00H, 'u'
	DB	00H, 'c', 00H, 'h', 00H, 'i', 00H, 'N', 00H, 'E', 00H, 'T', 00H
	DB	'.', 00H, '1', 00H, 00H, 00H			; `string'
CONST	ENDS
;	COMDAT ??_C@_1M@KANJNLFF@?$AAC?$AAL?$AAS?$AAI?$AAD?$AA?$AA@
CONST	SEGMENT
??_C@_1M@KANJNLFF@?$AAC?$AAL?$AAS?$AAI?$AAD?$AA?$AA@ DB 'C', 00H, 'L', 00H
	DB	'S', 00H, 'I', 00H, 'D', 00H, 00H, 00H	; `string'
CONST	ENDS
;	COMDAT ??_C@_1BG@IKBEDGEE@?$AAC?$AAT?$AAS?$AA?4?$AAC?$AAO?$AAD?$AAE?$AA?4?$AA1?$AA?$AA@
CONST	SEGMENT
??_C@_1BG@IKBEDGEE@?$AAC?$AAT?$AAS?$AA?4?$AAC?$AAO?$AAD?$AAE?$AA?4?$AA1?$AA?$AA@ DB 'C'
	DB	00H, 'T', 00H, 'S', 00H, '.', 00H, 'C', 00H, 'O', 00H, 'D', 00H
	DB	'E', 00H, '.', 00H, '1', 00H, 00H, 00H	; `string'
CONST	ENDS
;	COMDAT ??_C@_1EC@EOEMEEJF@?$AAD?$AAL?$AAL?$AA?5?$AAN?$AAE?$AAT?$AAW?$AAO?$AAR?$AAK?$AA?5?$AAC?$AAo?$AAm?$AAp?$AAo?$AAn?$AAe?$AAn?$AAt?$AA?5?$AA?9?$AA?5?$AAb?$AAy?$AA?5?$AAy?$AAu?$AAc?$AAh?$AAi@
CONST	SEGMENT
??_C@_1EC@EOEMEEJF@?$AAD?$AAL?$AAL?$AA?5?$AAN?$AAE?$AAT?$AAW?$AAO?$AAR?$AAK?$AA?5?$AAC?$AAo?$AAm?$AAp?$AAo?$AAn?$AAe?$AAn?$AAt?$AA?5?$AA?9?$AA?5?$AAb?$AAy?$AA?5?$AAy?$AAu?$AAc?$AAh?$AAi@ DB 'D'
	DB	00H, 'L', 00H, 'L', 00H, ' ', 00H, 'N', 00H, 'E', 00H, 'T', 00H
	DB	'W', 00H, 'O', 00H, 'R', 00H, 'K', 00H, ' ', 00H, 'C', 00H, 'o'
	DB	00H, 'm', 00H, 'p', 00H, 'o', 00H, 'n', 00H, 'e', 00H, 'n', 00H
	DB	't', 00H, ' ', 00H, '-', 00H, ' ', 00H, 'b', 00H, 'y', 00H, ' '
	DB	00H, 'y', 00H, 'u', 00H, 'c', 00H, 'h', 00H, 'i', 00H, 00H, 00H ; `string'
CONST	ENDS
;	COMDAT ??_C@_1O@FHBGLCIO@?$AAC?$AAL?$AAS?$AAI?$AAD?$AA?2?$AA?$AA@
CONST	SEGMENT
??_C@_1O@FHBGLCIO@?$AAC?$AAL?$AAS?$AAI?$AAD?$AA?2?$AA?$AA@ DB 'C', 00H, 'L'
	DB	00H, 'S', 00H, 'I', 00H, 'D', 00H, '\', 00H, 00H, 00H ; `string'
CONST	ENDS
;	COMDAT ??_C@_13FPGAJAPJ@?$AA?2?$AA?$AA@
CONST	SEGMENT
??_C@_13FPGAJAPJ@?$AA?2?$AA?$AA@ DB '\', 00H, 00H, 00H	; `string'
CONST	ENDS
; Function compile flags: /Ogtp
;	COMDAT _DllUnregisterServer@0
_TEXT	SEGMENT
_szID$ = -1360						; size = 258
_szTemp$ = -1100					; size = 776
_szCLSID$ = -324					; size = 320
__$ArrayPad$ = -4					; size = 4
_DllUnregisterServer@0 PROC				; COMDAT
; File e:\github\mso_code\4dyuchinet_latest\dllmain.cpp
; Line 371
  00000	55		 push	 ebp
  00001	8b ec		 mov	 ebp, esp
  00003	81 ec 50 05 00
	00		 sub	 esp, 1360		; 00000550H
  00009	a1 00 00 00 00	 mov	 eax, DWORD PTR ___security_cookie
  0000e	33 c5		 xor	 eax, ebp
  00010	89 45 fc	 mov	 DWORD PTR __$ArrayPad$[ebp], eax
  00013	56		 push	 esi
  00014	57		 push	 edi
; Line 379
  00015	68 80 00 00 00	 push	 128			; 00000080H
  0001a	8d 85 b0 fa ff
	ff		 lea	 eax, DWORD PTR _szID$[ebp]
  00020	50		 push	 eax
  00021	68 00 00 00 00	 push	 OFFSET _CLSID_4DyuchiNET
  00026	ff 15 00 00 00
	00		 call	 DWORD PTR __imp__StringFromGUID2@12
; Line 380
  0002c	68 00 00 00 00	 push	 OFFSET ??_C@_1O@FHBGLCIO@?$AAC?$AAL?$AAS?$AAI?$AAD?$AA?2?$AA?$AA@
  00031	8d 85 bc fe ff
	ff		 lea	 eax, DWORD PTR _szCLSID$[ebp]
  00037	50		 push	 eax
  00038	ff 15 00 00 00
	00		 call	 DWORD PTR __imp__lstrcpyW@8
; Line 381
  0003e	8d 85 b0 fa ff
	ff		 lea	 eax, DWORD PTR _szID$[ebp]
  00044	50		 push	 eax
  00045	8d 85 bc fe ff
	ff		 lea	 eax, DWORD PTR _szCLSID$[ebp]
  0004b	50		 push	 eax
  0004c	ff 15 00 00 00
	00		 call	 DWORD PTR __imp__lstrcatW@8
; Line 383
  00052	8b 3d 00 00 00
	00		 mov	 edi, DWORD PTR __imp__RegDeleteKeyW@8
  00058	68 00 00 00 00	 push	 OFFSET ??_C@_1DI@HHMNMAOE@?$AAC?$AAT?$AAS?$AA?4?$AAC?$AAL?$AAS?$AAI?$AAD?$AA_?$AA4?$AAD?$AAy?$AAu?$AAc?$AAh?$AAi?$AAN?$AAE?$AAT?$AA?2?$AAC?$AAu?$AAr?$AAV?$AAe?$AAr?$AA?$AA@
  0005d	68 00 00 00 80	 push	 -2147483648		; 80000000H
  00062	ff d7		 call	 edi
; Line 384
  00064	68 00 00 00 00	 push	 OFFSET ??_C@_1DG@BMINCDKK@?$AAC?$AAT?$AAS?$AA?4?$AAC?$AAL?$AAS?$AAI?$AAD?$AA_?$AA4?$AAD?$AAy?$AAu?$AAc?$AAh?$AAi?$AAN?$AAE?$AAT?$AA?2?$AAC?$AAL?$AAS?$AAI?$AAD?$AA?$AA@
  00069	68 00 00 00 80	 push	 -2147483648		; 80000000H
  0006e	ff d7		 call	 edi
; Line 385
  00070	68 00 00 00 00	 push	 OFFSET ??_C@_1CK@IOCOGGLI@?$AAC?$AAT?$AAS?$AA?4?$AAC?$AAL?$AAS?$AAI?$AAD?$AA_?$AA4?$AAD?$AAy?$AAu?$AAc?$AAh?$AAi?$AAN?$AAE?$AAT?$AA?$AA@
  00075	68 00 00 00 80	 push	 -2147483648		; 80000000H
  0007a	ff d7		 call	 edi
; Line 387
  0007c	68 00 00 00 00	 push	 OFFSET ??_C@_1DK@NAFHGEAI@?$AAC?$AAT?$AAS?$AA?4?$AAC?$AAL?$AAS?$AAI?$AAD?$AA_?$AA4?$AAD?$AAy?$AAu?$AAc?$AAh?$AAi?$AAN?$AAE?$AAT?$AA?4?$AA1?$AA?2?$AAC?$AAL?$AAS?$AAI?$AAD?$AA?$AA@
  00081	68 00 00 00 80	 push	 -2147483648		; 80000000H
  00086	ff d7		 call	 edi
; Line 388
  00088	68 00 00 00 00	 push	 OFFSET ??_C@_1CO@OAKKINGO@?$AAC?$AAT?$AAS?$AA?4?$AAC?$AAL?$AAS?$AAI?$AAD?$AA_?$AA4?$AAD?$AAy?$AAu?$AAc?$AAh?$AAi?$AAN?$AAE?$AAT?$AA?4?$AA1?$AA?$AA@
  0008d	68 00 00 00 80	 push	 -2147483648		; 80000000H
  00092	ff d7		 call	 edi
; Line 391
  00094	8b 35 00 00 00
	00		 mov	 esi, DWORD PTR __imp__wsprintfW
  0009a	8d 85 bc fe ff
	ff		 lea	 eax, DWORD PTR _szCLSID$[ebp]
  000a0	68 00 00 00 00	 push	 OFFSET ??_C@_1O@HNNDAFP@?$AAP?$AAr?$AAo?$AAg?$AAI?$AAD?$AA?$AA@
  000a5	50		 push	 eax
  000a6	8d 85 b4 fb ff
	ff		 lea	 eax, DWORD PTR _szTemp$[ebp]
  000ac	68 00 00 00 00	 push	 OFFSET ??_C@_1M@DFKENGJN@?$AA?$CF?$AAs?$AA?2?$AA?$CF?$AAs?$AA?$AA@
  000b1	50		 push	 eax
  000b2	ff d6		 call	 esi
  000b4	83 c4 10	 add	 esp, 16			; 00000010H
; Line 392
  000b7	8d 85 b4 fb ff
	ff		 lea	 eax, DWORD PTR _szTemp$[ebp]
  000bd	50		 push	 eax
  000be	68 00 00 00 80	 push	 -2147483648		; 80000000H
  000c3	ff d7		 call	 edi
; Line 394
  000c5	68 00 00 00 00	 push	 OFFSET ??_C@_1DC@MIAMMDBM@?$AAV?$AAe?$AAr?$AAs?$AAi?$AAo?$AAn?$AAI?$AAn?$AAd?$AAe?$AAp?$AAe?$AAn?$AAd?$AAe?$AAn?$AAt?$AAP?$AAr?$AAo?$AAg?$AAI?$AAD?$AA?$AA@
  000ca	8d 85 bc fe ff
	ff		 lea	 eax, DWORD PTR _szCLSID$[ebp]
  000d0	50		 push	 eax
  000d1	8d 85 b4 fb ff
	ff		 lea	 eax, DWORD PTR _szTemp$[ebp]
  000d7	68 00 00 00 00	 push	 OFFSET ??_C@_1M@DFKENGJN@?$AA?$CF?$AAs?$AA?2?$AA?$CF?$AAs?$AA?$AA@
  000dc	50		 push	 eax
  000dd	ff d6		 call	 esi
  000df	83 c4 10	 add	 esp, 16			; 00000010H
; Line 395
  000e2	8d 85 b4 fb ff
	ff		 lea	 eax, DWORD PTR _szTemp$[ebp]
  000e8	50		 push	 eax
  000e9	68 00 00 00 80	 push	 -2147483648		; 80000000H
  000ee	ff d7		 call	 edi
; Line 397
  000f0	68 00 00 00 00	 push	 OFFSET ??_C@_1BM@NDCGEDGI@?$AAN?$AAo?$AAt?$AAI?$AAn?$AAs?$AAe?$AAr?$AAt?$AAa?$AAb?$AAl?$AAe?$AA?$AA@
  000f5	8d 85 bc fe ff
	ff		 lea	 eax, DWORD PTR _szCLSID$[ebp]
  000fb	50		 push	 eax
  000fc	8d 85 b4 fb ff
	ff		 lea	 eax, DWORD PTR _szTemp$[ebp]
  00102	68 00 00 00 00	 push	 OFFSET ??_C@_1M@DFKENGJN@?$AA?$CF?$AAs?$AA?2?$AA?$CF?$AAs?$AA?$AA@
  00107	50		 push	 eax
  00108	ff d6		 call	 esi
  0010a	83 c4 10	 add	 esp, 16			; 00000010H
; Line 398
  0010d	8d 85 b4 fb ff
	ff		 lea	 eax, DWORD PTR _szTemp$[ebp]
  00113	50		 push	 eax
  00114	68 00 00 00 80	 push	 -2147483648		; 80000000H
  00119	ff d7		 call	 edi
; Line 400
  0011b	68 00 00 00 00	 push	 OFFSET ??_C@_1BO@MNKPAJEP@?$AAI?$AAn?$AAp?$AAr?$AAo?$AAc?$AAS?$AAe?$AAr?$AAv?$AAe?$AAr?$AA3?$AA2?$AA?$AA@
  00120	8d 85 bc fe ff
	ff		 lea	 eax, DWORD PTR _szCLSID$[ebp]
  00126	50		 push	 eax
  00127	8d 85 b4 fb ff
	ff		 lea	 eax, DWORD PTR _szTemp$[ebp]
  0012d	68 00 00 00 00	 push	 OFFSET ??_C@_1M@DFKENGJN@?$AA?$CF?$AAs?$AA?2?$AA?$CF?$AAs?$AA?$AA@
  00132	50		 push	 eax
  00133	ff d6		 call	 esi
  00135	83 c4 10	 add	 esp, 16			; 00000010H
; Line 401
  00138	8d 85 b4 fb ff
	ff		 lea	 eax, DWORD PTR _szTemp$[ebp]
  0013e	50		 push	 eax
  0013f	68 00 00 00 80	 push	 -2147483648		; 80000000H
  00144	ff d7		 call	 edi
; Line 403
  00146	8d 85 bc fe ff
	ff		 lea	 eax, DWORD PTR _szCLSID$[ebp]
  0014c	50		 push	 eax
  0014d	68 00 00 00 80	 push	 -2147483648		; 80000000H
  00152	ff d7		 call	 edi
; Line 406
  00154	8b 4d fc	 mov	 ecx, DWORD PTR __$ArrayPad$[ebp]
  00157	33 c0		 xor	 eax, eax
  00159	5f		 pop	 edi
  0015a	33 cd		 xor	 ecx, ebp
  0015c	5e		 pop	 esi
  0015d	e8 00 00 00 00	 call	 @__security_check_cookie@4
  00162	8b e5		 mov	 esp, ebp
  00164	5d		 pop	 ebp
  00165	c3		 ret	 0
_DllUnregisterServer@0 ENDP
_TEXT	ENDS
; Function compile flags: /Ogtp
;	COMDAT _DllRegisterServer@0
_TEXT	SEGMENT
_szModulePath$ = -1104					; size = 520
_szID$ = -584						; size = 258
_szCLSID$ = -324					; size = 320
__$ArrayPad$ = -4					; size = 4
_DllRegisterServer@0 PROC				; COMDAT
; File e:\github\mso_code\4dyuchinet_latest\dllmain.cpp
; Line 280
  00000	55		 push	 ebp
  00001	8b ec		 mov	 ebp, esp
  00003	81 ec 50 04 00
	00		 sub	 esp, 1104		; 00000450H
  00009	a1 00 00 00 00	 mov	 eax, DWORD PTR ___security_cookie
  0000e	33 c5		 xor	 eax, ebp
  00010	89 45 fc	 mov	 DWORD PTR __$ArrayPad$[ebp], eax
; Line 287
  00013	68 04 01 00 00	 push	 260			; 00000104H
  00018	8d 85 b0 fb ff
	ff		 lea	 eax, DWORD PTR _szModulePath$[ebp]
  0001e	50		 push	 eax
  0001f	ff 35 00 00 00
	00		 push	 DWORD PTR ?g_hDllInst@@3PAUHINSTANCE__@@A ; g_hDllInst
  00025	ff 15 00 00 00
	00		 call	 DWORD PTR __imp__GetModuleFileNameW@12
; Line 294
  0002b	68 80 00 00 00	 push	 128			; 00000080H
  00030	8d 85 b8 fd ff
	ff		 lea	 eax, DWORD PTR _szID$[ebp]
  00036	50		 push	 eax
  00037	68 00 00 00 00	 push	 OFFSET _CLSID_4DyuchiNET
  0003c	ff 15 00 00 00
	00		 call	 DWORD PTR __imp__StringFromGUID2@12
; Line 295
  00042	68 00 00 00 00	 push	 OFFSET ??_C@_1O@FHBGLCIO@?$AAC?$AAL?$AAS?$AAI?$AAD?$AA?2?$AA?$AA@
  00047	8d 85 bc fe ff
	ff		 lea	 eax, DWORD PTR _szCLSID$[ebp]
  0004d	50		 push	 eax
  0004e	ff 15 00 00 00
	00		 call	 DWORD PTR __imp__lstrcpyW@8
; Line 296
  00054	8d 85 b8 fd ff
	ff		 lea	 eax, DWORD PTR _szID$[ebp]
  0005a	50		 push	 eax
  0005b	8d 85 bc fe ff
	ff		 lea	 eax, DWORD PTR _szCLSID$[ebp]
  00061	50		 push	 eax
  00062	ff 15 00 00 00
	00		 call	 DWORD PTR __imp__lstrcatW@8
; Line 302
  00068	68 00 00 00 00	 push	 OFFSET ??_C@_1EC@EOEMEEJF@?$AAD?$AAL?$AAL?$AA?5?$AAN?$AAE?$AAT?$AAW?$AAO?$AAR?$AAK?$AA?5?$AAC?$AAo?$AAm?$AAp?$AAo?$AAn?$AAe?$AAn?$AAt?$AA?5?$AA?9?$AA?5?$AAb?$AAy?$AA?5?$AAy?$AAu?$AAc?$AAh?$AAi@
  0006d	6a 00		 push	 0
  0006f	68 00 00 00 00	 push	 OFFSET ??_C@_1BG@IKBEDGEE@?$AAC?$AAT?$AAS?$AA?4?$AAC?$AAO?$AAD?$AAE?$AA?4?$AA1?$AA?$AA@
  00074	e8 00 00 00 00	 call	 ?SetRegKeyValue@@YAHPA_W00@Z ; SetRegKeyValue
; Line 307
  00079	8d 85 b8 fd ff
	ff		 lea	 eax, DWORD PTR _szID$[ebp]
  0007f	50		 push	 eax
  00080	68 00 00 00 00	 push	 OFFSET ??_C@_1M@KANJNLFF@?$AAC?$AAL?$AAS?$AAI?$AAD?$AA?$AA@
  00085	68 00 00 00 00	 push	 OFFSET ??_C@_1CO@OAKKINGO@?$AAC?$AAT?$AAS?$AA?4?$AAC?$AAL?$AAS?$AAI?$AAD?$AA_?$AA4?$AAD?$AAy?$AAu?$AAc?$AAh?$AAi?$AAN?$AAE?$AAT?$AA?4?$AA1?$AA?$AA@
  0008a	e8 00 00 00 00	 call	 ?SetRegKeyValue@@YAHPA_W00@Z ; SetRegKeyValue
; Line 314
  0008f	68 00 00 00 00	 push	 OFFSET ??_C@_1EC@EOEMEEJF@?$AAD?$AAL?$AAL?$AA?5?$AAN?$AAE?$AAT?$AAW?$AAO?$AAR?$AAK?$AA?5?$AAC?$AAo?$AAm?$AAp?$AAo?$AAn?$AAe?$AAn?$AAt?$AA?5?$AA?9?$AA?5?$AAb?$AAy?$AA?5?$AAy?$AAu?$AAc?$AAh?$AAi@
  00094	6a 00		 push	 0
  00096	68 00 00 00 00	 push	 OFFSET ??_C@_1CK@IOCOGGLI@?$AAC?$AAT?$AAS?$AA?4?$AAC?$AAL?$AAS?$AAI?$AAD?$AA_?$AA4?$AAD?$AAy?$AAu?$AAc?$AAh?$AAi?$AAN?$AAE?$AAT?$AA?$AA@
  0009b	e8 00 00 00 00	 call	 ?SetRegKeyValue@@YAHPA_W00@Z ; SetRegKeyValue
; Line 320
  000a0	68 00 00 00 00	 push	 OFFSET ??_C@_1CO@OAKKINGO@?$AAC?$AAT?$AAS?$AA?4?$AAC?$AAL?$AAS?$AAI?$AAD?$AA_?$AA4?$AAD?$AAy?$AAu?$AAc?$AAh?$AAi?$AAN?$AAE?$AAT?$AA?4?$AA1?$AA?$AA@
  000a5	68 00 00 00 00	 push	 OFFSET ??_C@_1O@FHIPPLOM@?$AAC?$AAu?$AAr?$AAV?$AAe?$AAr?$AA?$AA@
  000aa	68 00 00 00 00	 push	 OFFSET ??_C@_1CO@OAKKINGO@?$AAC?$AAT?$AAS?$AA?4?$AAC?$AAL?$AAS?$AAI?$AAD?$AA_?$AA4?$AAD?$AAy?$AAu?$AAc?$AAh?$AAi?$AAN?$AAE?$AAT?$AA?4?$AA1?$AA?$AA@
  000af	e8 00 00 00 00	 call	 ?SetRegKeyValue@@YAHPA_W00@Z ; SetRegKeyValue
; Line 324
  000b4	8d 85 b8 fd ff
	ff		 lea	 eax, DWORD PTR _szID$[ebp]
  000ba	50		 push	 eax
  000bb	68 00 00 00 00	 push	 OFFSET ??_C@_1M@KANJNLFF@?$AAC?$AAL?$AAS?$AAI?$AAD?$AA?$AA@
  000c0	68 00 00 00 00	 push	 OFFSET ??_C@_1CO@OAKKINGO@?$AAC?$AAT?$AAS?$AA?4?$AAC?$AAL?$AAS?$AAI?$AAD?$AA_?$AA4?$AAD?$AAy?$AAu?$AAc?$AAh?$AAi?$AAN?$AAE?$AAT?$AA?4?$AA1?$AA?$AA@
  000c5	e8 00 00 00 00	 call	 ?SetRegKeyValue@@YAHPA_W00@Z ; SetRegKeyValue
; Line 330
  000ca	68 00 00 00 00	 push	 OFFSET ??_C@_1EC@EOEMEEJF@?$AAD?$AAL?$AAL?$AA?5?$AAN?$AAE?$AAT?$AAW?$AAO?$AAR?$AAK?$AA?5?$AAC?$AAo?$AAm?$AAp?$AAo?$AAn?$AAe?$AAn?$AAt?$AA?5?$AA?9?$AA?5?$AAb?$AAy?$AA?5?$AAy?$AAu?$AAc?$AAh?$AAi@
  000cf	8d 85 bc fe ff
	ff		 lea	 eax, DWORD PTR _szCLSID$[ebp]
  000d5	6a 00		 push	 0
  000d7	50		 push	 eax
  000d8	e8 00 00 00 00	 call	 ?SetRegKeyValue@@YAHPA_W00@Z ; SetRegKeyValue
  000dd	83 c4 48	 add	 esp, 72			; 00000048H
; Line 335
  000e0	8d 85 bc fe ff
	ff		 lea	 eax, DWORD PTR _szCLSID$[ebp]
  000e6	68 00 00 00 00	 push	 OFFSET ??_C@_1CO@OAKKINGO@?$AAC?$AAT?$AAS?$AA?4?$AAC?$AAL?$AAS?$AAI?$AAD?$AA_?$AA4?$AAD?$AAy?$AAu?$AAc?$AAh?$AAi?$AAN?$AAE?$AAT?$AA?4?$AA1?$AA?$AA@
  000eb	68 00 00 00 00	 push	 OFFSET ??_C@_1O@HNNDAFP@?$AAP?$AAr?$AAo?$AAg?$AAI?$AAD?$AA?$AA@
  000f0	50		 push	 eax
  000f1	e8 00 00 00 00	 call	 ?SetRegKeyValue@@YAHPA_W00@Z ; SetRegKeyValue
; Line 339
  000f6	68 00 00 00 00	 push	 OFFSET ??_C@_1CO@OAKKINGO@?$AAC?$AAT?$AAS?$AA?4?$AAC?$AAL?$AAS?$AAI?$AAD?$AA_?$AA4?$AAD?$AAy?$AAu?$AAc?$AAh?$AAi?$AAN?$AAE?$AAT?$AA?4?$AA1?$AA?$AA@
  000fb	8d 85 bc fe ff
	ff		 lea	 eax, DWORD PTR _szCLSID$[ebp]
  00101	68 00 00 00 00	 push	 OFFSET ??_C@_1DC@MIAMMDBM@?$AAV?$AAe?$AAr?$AAs?$AAi?$AAo?$AAn?$AAI?$AAn?$AAd?$AAe?$AAp?$AAe?$AAn?$AAd?$AAe?$AAn?$AAt?$AAP?$AAr?$AAo?$AAg?$AAI?$AAD?$AA?$AA@
  00106	50		 push	 eax
  00107	e8 00 00 00 00	 call	 ?SetRegKeyValue@@YAHPA_W00@Z ; SetRegKeyValue
; Line 343
  0010c	6a 00		 push	 0
  0010e	8d 85 bc fe ff
	ff		 lea	 eax, DWORD PTR _szCLSID$[ebp]
  00114	68 00 00 00 00	 push	 OFFSET ??_C@_1BM@NDCGEDGI@?$AAN?$AAo?$AAt?$AAI?$AAn?$AAs?$AAe?$AAr?$AAt?$AAa?$AAb?$AAl?$AAe?$AA?$AA@
  00119	50		 push	 eax
  0011a	e8 00 00 00 00	 call	 ?SetRegKeyValue@@YAHPA_W00@Z ; SetRegKeyValue
; Line 347
  0011f	8d 85 b0 fb ff
	ff		 lea	 eax, DWORD PTR _szModulePath$[ebp]
  00125	50		 push	 eax
  00126	8d 85 bc fe ff
	ff		 lea	 eax, DWORD PTR _szCLSID$[ebp]
  0012c	68 00 00 00 00	 push	 OFFSET ??_C@_1BO@MNKPAJEP@?$AAI?$AAn?$AAp?$AAr?$AAo?$AAc?$AAS?$AAe?$AAr?$AAv?$AAe?$AAr?$AA3?$AA2?$AA?$AA@
  00131	50		 push	 eax
  00132	e8 00 00 00 00	 call	 ?SetRegKeyValue@@YAHPA_W00@Z ; SetRegKeyValue
; Line 353
  00137	68 00 00 00 00	 push	 OFFSET ??_C@_1BE@LIAIMCOB@?$AAA?$AAp?$AAa?$AAr?$AAt?$AAm?$AAe?$AAn?$AAt?$AA?$AA@
  0013c	68 00 00 00 00	 push	 OFFSET ??_C@_1BO@NMEHGCBD@?$AAT?$AAh?$AAr?$AAe?$AAa?$AAd?$AAi?$AAn?$AAg?$AAM?$AAo?$AAd?$AAe?$AAl?$AA?$AA@
  00141	8d 85 bc fe ff
	ff		 lea	 eax, DWORD PTR _szCLSID$[ebp]
  00147	68 00 00 00 00	 push	 OFFSET ??_C@_1BO@MNKPAJEP@?$AAI?$AAn?$AAp?$AAr?$AAo?$AAc?$AAS?$AAe?$AAr?$AAv?$AAe?$AAr?$AA3?$AA2?$AA?$AA@
  0014c	50		 push	 eax
  0014d	e8 00 00 00 00	 call	 ?AddRegNamedValue@@YAHPA_W000@Z ; AddRegNamedValue
; Line 356
  00152	8b 4d fc	 mov	 ecx, DWORD PTR __$ArrayPad$[ebp]
  00155	83 c4 40	 add	 esp, 64			; 00000040H
  00158	33 cd		 xor	 ecx, ebp
  0015a	33 c0		 xor	 eax, eax
  0015c	e8 00 00 00 00	 call	 @__security_check_cookie@4
  00161	8b e5		 mov	 esp, ebp
  00163	5d		 pop	 ebp
  00164	c3		 ret	 0
_DllRegisterServer@0 ENDP
_TEXT	ENDS
; Function compile flags: /Ogtp
;	COMDAT ?AddRegNamedValue@@YAHPA_W000@Z
_TEXT	SEGMENT
_pszValueName$GSCopy$1$ = -528				; size = 4
_pszValue$GSCopy$1$ = -524				; size = 4
_hKey$ = -520						; size = 4
_szKey$ = -516						; size = 512
__$ArrayPad$ = -4					; size = 4
_pszKey$ = 8						; size = 4
_pszSubkey$ = 12					; size = 4
_pszValueName$ = 16					; size = 4
_pszValue$ = 20						; size = 4
?AddRegNamedValue@@YAHPA_W000@Z PROC			; AddRegNamedValue, COMDAT
; File e:\github\mso_code\4dyuchinet_latest\dllmain.cpp
; Line 229
  00000	55		 push	 ebp
  00001	8b ec		 mov	 ebp, esp
  00003	81 ec 10 02 00
	00		 sub	 esp, 528		; 00000210H
  00009	a1 00 00 00 00	 mov	 eax, DWORD PTR ___security_cookie
  0000e	33 c5		 xor	 eax, ebp
  00010	89 45 fc	 mov	 DWORD PTR __$ArrayPad$[ebp], eax
  00013	8b 45 08	 mov	 eax, DWORD PTR _pszKey$[ebp]
  00016	8b 4d 10	 mov	 ecx, DWORD PTR _pszValueName$[ebp]
  00019	53		 push	 ebx
  0001a	8b 5d 0c	 mov	 ebx, DWORD PTR _pszSubkey$[ebp]
  0001d	56		 push	 esi
  0001e	8b 75 14	 mov	 esi, DWORD PTR _pszValue$[ebp]
  00021	57		 push	 edi
; Line 235
  00022	50		 push	 eax
  00023	8d 85 fc fd ff
	ff		 lea	 eax, DWORD PTR _szKey$[ebp]
  00029	89 8d f0 fd ff
	ff		 mov	 DWORD PTR _pszValueName$GSCopy$1$[ebp], ecx
  0002f	50		 push	 eax
  00030	89 b5 f4 fd ff
	ff		 mov	 DWORD PTR _pszValue$GSCopy$1$[ebp], esi
  00036	33 ff		 xor	 edi, edi
  00038	ff 15 00 00 00
	00		 call	 DWORD PTR __imp__lstrcpyW@8
; Line 237
  0003e	85 db		 test	 ebx, ebx
  00040	74 24		 je	 SHORT $LN3@AddRegName
; Line 239
  00042	8b 35 00 00 00
	00		 mov	 esi, DWORD PTR __imp__lstrcatW@8
  00048	8d 85 fc fd ff
	ff		 lea	 eax, DWORD PTR _szKey$[ebp]
  0004e	68 00 00 00 00	 push	 OFFSET ??_C@_13FPGAJAPJ@?$AA?2?$AA?$AA@
  00053	50		 push	 eax
  00054	ff d6		 call	 esi
; Line 240
  00056	53		 push	 ebx
  00057	8d 85 fc fd ff
	ff		 lea	 eax, DWORD PTR _szKey$[ebp]
  0005d	50		 push	 eax
  0005e	ff d6		 call	 esi
  00060	8b b5 f4 fd ff
	ff		 mov	 esi, DWORD PTR _pszValue$GSCopy$1$[ebp]
$LN3@AddRegName:
; Line 248
  00066	8d 85 f8 fd ff
	ff		 lea	 eax, DWORD PTR _hKey$[ebp]
  0006c	50		 push	 eax
  0006d	68 3f 00 0f 00	 push	 983103			; 000f003fH
  00072	6a 00		 push	 0
  00074	8d 85 fc fd ff
	ff		 lea	 eax, DWORD PTR _szKey$[ebp]
  0007a	50		 push	 eax
  0007b	68 00 00 00 80	 push	 -2147483648		; 80000000H
  00080	ff 15 00 00 00
	00		 call	 DWORD PTR __imp__RegOpenKeyExW@20
; Line 250
  00086	85 f6		 test	 esi, esi
  00088	74 40		 je	 SHORT $LN6@AddRegName
  0008a	85 c0		 test	 eax, eax
  0008c	75 3c		 jne	 SHORT $LN6@AddRegName
; Line 258
  0008e	56		 push	 esi
  0008f	ff 15 00 00 00
	00		 call	 DWORD PTR __imp__lstrlenW@4
  00095	8d 04 45 02 00
	00 00		 lea	 eax, DWORD PTR [eax*2+2]
  0009c	50		 push	 eax
  0009d	56		 push	 esi
  0009e	6a 01		 push	 1
  000a0	6a 00		 push	 0
  000a2	ff b5 f0 fd ff
	ff		 push	 DWORD PTR _pszValueName$GSCopy$1$[ebp]
  000a8	ff b5 f8 fd ff
	ff		 push	 DWORD PTR _hKey$[ebp]
  000ae	ff 15 00 00 00
	00		 call	 DWORD PTR __imp__RegSetValueExW@24
; Line 261
  000b4	ff b5 f8 fd ff
	ff		 push	 DWORD PTR _hKey$[ebp]
  000ba	85 c0		 test	 eax, eax
  000bc	b9 01 00 00 00	 mov	 ecx, 1
  000c1	0f 44 f9	 cmove	 edi, ecx
  000c4	ff 15 00 00 00
	00		 call	 DWORD PTR __imp__RegCloseKey@4
$LN6@AddRegName:
; Line 265
  000ca	8b 4d fc	 mov	 ecx, DWORD PTR __$ArrayPad$[ebp]
  000cd	8b c7		 mov	 eax, edi
  000cf	5f		 pop	 edi
  000d0	5e		 pop	 esi
  000d1	33 cd		 xor	 ecx, ebp
  000d3	5b		 pop	 ebx
  000d4	e8 00 00 00 00	 call	 @__security_check_cookie@4
  000d9	8b e5		 mov	 esp, ebp
  000db	5d		 pop	 ebp
  000dc	c3		 ret	 0
?AddRegNamedValue@@YAHPA_W000@Z ENDP			; AddRegNamedValue
_TEXT	ENDS
; Function compile flags: /Ogtp
;	COMDAT ?SetRegKeyValue@@YAHPA_W00@Z
_TEXT	SEGMENT
_pszSubkey$GSCopy$1$ = -524				; size = 4
_hKey$ = -520						; size = 4
_szKey$ = -516						; size = 512
__$ArrayPad$ = -4					; size = 4
_pszKey$ = 8						; size = 4
_pszSubkey$ = 12					; size = 4
_pszValue$ = 16						; size = 4
?SetRegKeyValue@@YAHPA_W00@Z PROC			; SetRegKeyValue, COMDAT
; File e:\github\mso_code\4dyuchinet_latest\dllmain.cpp
; Line 163
  00000	55		 push	 ebp
  00001	8b ec		 mov	 ebp, esp
  00003	81 ec 0c 02 00
	00		 sub	 esp, 524		; 0000020cH
  00009	a1 00 00 00 00	 mov	 eax, DWORD PTR ___security_cookie
  0000e	33 c5		 xor	 eax, ebp
  00010	89 45 fc	 mov	 DWORD PTR __$ArrayPad$[ebp], eax
  00013	8b 45 08	 mov	 eax, DWORD PTR _pszKey$[ebp]
  00016	53		 push	 ebx
  00017	8b 5d 10	 mov	 ebx, DWORD PTR _pszValue$[ebp]
  0001a	56		 push	 esi
  0001b	8b 75 0c	 mov	 esi, DWORD PTR _pszSubkey$[ebp]
  0001e	57		 push	 edi
; Line 169
  0001f	50		 push	 eax
  00020	8d 85 fc fd ff
	ff		 lea	 eax, DWORD PTR _szKey$[ebp]
  00026	89 b5 f4 fd ff
	ff		 mov	 DWORD PTR _pszSubkey$GSCopy$1$[ebp], esi
  0002c	50		 push	 eax
  0002d	33 ff		 xor	 edi, edi
  0002f	ff 15 00 00 00
	00		 call	 DWORD PTR __imp__lstrcpyW@8
; Line 171
  00035	85 f6		 test	 esi, esi
  00037	74 23		 je	 SHORT $LN4@SetRegKeyV
; Line 173
  00039	8b 35 00 00 00
	00		 mov	 esi, DWORD PTR __imp__lstrcatW@8
  0003f	8d 85 fc fd ff
	ff		 lea	 eax, DWORD PTR _szKey$[ebp]
  00045	68 00 00 00 00	 push	 OFFSET ??_C@_13FPGAJAPJ@?$AA?2?$AA?$AA@
  0004a	50		 push	 eax
  0004b	ff d6		 call	 esi
; Line 174
  0004d	ff b5 f4 fd ff
	ff		 push	 DWORD PTR _pszSubkey$GSCopy$1$[ebp]
  00053	8d 85 fc fd ff
	ff		 lea	 eax, DWORD PTR _szKey$[ebp]
  00059	50		 push	 eax
  0005a	ff d6		 call	 esi
$LN4@SetRegKeyV:
; Line 186
  0005c	6a 00		 push	 0
  0005e	8d 85 f8 fd ff
	ff		 lea	 eax, DWORD PTR _hKey$[ebp]
  00064	50		 push	 eax
  00065	6a 00		 push	 0
  00067	68 3f 00 0f 00	 push	 983103			; 000f003fH
  0006c	6a 00		 push	 0
  0006e	6a 00		 push	 0
  00070	6a 00		 push	 0
  00072	8d 85 fc fd ff
	ff		 lea	 eax, DWORD PTR _szKey$[ebp]
  00078	50		 push	 eax
  00079	68 00 00 00 80	 push	 -2147483648		; 80000000H
  0007e	ff 15 00 00 00
	00		 call	 DWORD PTR __imp__RegCreateKeyExW@36
; Line 188
  00084	85 c0		 test	 eax, eax
  00086	75 3b		 jne	 SHORT $LN8@SetRegKeyV
; Line 190
  00088	85 db		 test	 ebx, ebx
  0008a	74 26		 je	 SHORT $LN7@SetRegKeyV
; Line 198
  0008c	53		 push	 ebx
  0008d	ff 15 00 00 00
	00		 call	 DWORD PTR __imp__lstrlenW@4
  00093	8d 04 45 02 00
	00 00		 lea	 eax, DWORD PTR [eax*2+2]
  0009a	50		 push	 eax
  0009b	53		 push	 ebx
  0009c	6a 01		 push	 1
  0009e	6a 00		 push	 0
  000a0	6a 00		 push	 0
  000a2	ff b5 f8 fd ff
	ff		 push	 DWORD PTR _hKey$[ebp]
  000a8	ff 15 00 00 00
	00		 call	 DWORD PTR __imp__RegSetValueExW@24
; Line 200
  000ae	85 c0		 test	 eax, eax
  000b0	75 05		 jne	 SHORT $LN1@SetRegKeyV
$LN7@SetRegKeyV:
; Line 201
  000b2	bf 01 00 00 00	 mov	 edi, 1
$LN1@SetRegKeyV:
; Line 202
  000b7	ff b5 f8 fd ff
	ff		 push	 DWORD PTR _hKey$[ebp]
  000bd	ff 15 00 00 00
	00		 call	 DWORD PTR __imp__RegCloseKey@4
$LN8@SetRegKeyV:
; Line 206
  000c3	8b 4d fc	 mov	 ecx, DWORD PTR __$ArrayPad$[ebp]
  000c6	8b c7		 mov	 eax, edi
  000c8	5f		 pop	 edi
  000c9	5e		 pop	 esi
  000ca	33 cd		 xor	 ecx, ebp
  000cc	5b		 pop	 ebx
  000cd	e8 00 00 00 00	 call	 @__security_check_cookie@4
  000d2	8b e5		 mov	 esp, ebp
  000d4	5d		 pop	 ebp
  000d5	c3		 ret	 0
?SetRegKeyValue@@YAHPA_W00@Z ENDP			; SetRegKeyValue
_TEXT	ENDS
; Function compile flags: /Ogtp
;	COMDAT _DllMain@12
_TEXT	SEGMENT
_hDllInst$ = 8						; size = 4
_fdwReason$ = 12					; size = 4
_lpvReserved$ = 16					; size = 4
_DllMain@12 PROC					; COMDAT
; File e:\github\mso_code\4dyuchinet_latest\dllmain.cpp
; Line 33
  00000	55		 push	 ebp
  00001	8b ec		 mov	 ebp, esp
; Line 38
  00003	ff 4d 0c	 dec	 DWORD PTR _fdwReason$[ebp]
  00006	75 08		 jne	 SHORT $LN10@DllMain
; Line 42
  00008	8b 45 08	 mov	 eax, DWORD PTR _hDllInst$[ebp]
  0000b	a3 00 00 00 00	 mov	 DWORD PTR ?g_hDllInst@@3PAUHINSTANCE__@@A, eax ; g_hDllInst
$LN10@DllMain:
; Line 74
  00010	b8 01 00 00 00	 mov	 eax, 1
; Line 75
  00015	5d		 pop	 ebp
  00016	c2 0c 00	 ret	 12			; 0000000cH
_DllMain@12 ENDP
_TEXT	ENDS
; Function compile flags: /Ogtp
;	COMDAT _DllCanUnloadNow@0
_TEXT	SEGMENT
_DllCanUnloadNow@0 PROC					; COMDAT
; File e:\github\mso_code\4dyuchinet_latest\dllmain.cpp
; Line 142
  00000	33 c0		 xor	 eax, eax
; Line 143
  00002	c3		 ret	 0
_DllCanUnloadNow@0 ENDP
_TEXT	ENDS
; Function compile flags: /Ogtp
;	COMDAT _DllGetClassObject@12
_TEXT	SEGMENT
_rclsid$ = 8						; size = 4
_riid$ = 12						; size = 4
_ppv$ = 16						; size = 4
_DllGetClassObject@12 PROC				; COMDAT
; File e:\github\mso_code\4dyuchinet_latest\dllmain.cpp
; Line 102
  00000	55		 push	 ebp
  00001	8b ec		 mov	 ebp, esp
; File c:\program files (x86)\windows kits\8.1\include\shared\guiddef.h
; Line 161
  00003	8b 55 08	 mov	 edx, DWORD PTR _rclsid$[ebp]
  00006	b9 00 00 00 00	 mov	 ecx, OFFSET _CLSID_4DyuchiNET
  0000b	56		 push	 esi
  0000c	be 0c 00 00 00	 mov	 esi, 12			; 0000000cH
$LL13@DllGetClas:
  00011	8b 01		 mov	 eax, DWORD PTR [ecx]
  00013	3b 02		 cmp	 eax, DWORD PTR [edx]
  00015	75 53		 jne	 SHORT $LN17@DllGetClas
  00017	83 c1 04	 add	 ecx, 4
  0001a	83 c2 04	 add	 edx, 4
  0001d	83 ee 04	 sub	 esi, 4
  00020	73 ef		 jae	 SHORT $LL13@DllGetClas
; File e:\github\mso_code\4dyuchinet_latest\dllmain.cpp
; Line 112
  00022	6a 08		 push	 8
  00024	e8 00 00 00 00	 call	 ??2@YAPAXI@Z		; operator new
  00029	83 c4 04	 add	 esp, 4
  0002c	85 c0		 test	 eax, eax
  0002e	74 30		 je	 SHORT $LN15@DllGetClas
  00030	8b c8		 mov	 ecx, eax
  00032	e8 00 00 00 00	 call	 ??0CF4DyuchiNET@@QAE@XZ	; CF4DyuchiNET::CF4DyuchiNET
  00037	8b f0		 mov	 esi, eax
; Line 113
  00039	85 f6		 test	 esi, esi
  0003b	74 23		 je	 SHORT $LN15@DllGetClas
; Line 115
  0003d	8b 06		 mov	 eax, DWORD PTR [esi]
  0003f	57		 push	 edi
  00040	ff 75 10	 push	 DWORD PTR _ppv$[ebp]
  00043	ff 75 0c	 push	 DWORD PTR _riid$[ebp]
  00046	56		 push	 esi
  00047	ff 10		 call	 DWORD PTR [eax]
  00049	8b f8		 mov	 edi, eax
; Line 116
  0004b	85 ff		 test	 edi, edi
  0004d	79 0b		 jns	 SHORT $LN18@DllGetClas
; Line 118
  0004f	56		 push	 esi
  00050	e8 00 00 00 00	 call	 ??3@YAXPAX@Z		; operator delete
  00055	83 c4 04	 add	 esp, 4
; Line 123
  00058	8b c7		 mov	 eax, edi
$LN18@DllGetClas:
  0005a	5f		 pop	 edi
  0005b	5e		 pop	 esi
; Line 125
  0005c	5d		 pop	 ebp
  0005d	c2 0c 00	 ret	 12			; 0000000cH
$LN15@DllGetClas:
; Line 123
  00060	b8 0e 00 07 80	 mov	 eax, -2147024882	; 8007000eH
  00065	5e		 pop	 esi
; Line 125
  00066	5d		 pop	 ebp
  00067	c2 0c 00	 ret	 12			; 0000000cH
$LN17@DllGetClas:
; Line 123
  0006a	b8 11 01 04 80	 mov	 eax, -2147221231	; 80040111H
  0006f	5e		 pop	 esi
; Line 125
  00070	5d		 pop	 ebp
  00071	c2 0c 00	 ret	 12			; 0000000cH
_DllGetClassObject@12 ENDP
_TEXT	ENDS
; Function compile flags: /Ogtp
;	COMDAT _==
_TEXT	SEGMENT
tv79 = -4						; size = 4
_guidOne$ = 8						; size = 4
_guidOther$ = 12					; size = 4
_==	PROC						; COMDAT
; File c:\program files (x86)\windows kits\8.1\include\shared\guiddef.h
; Line 193
  00000	55		 push	 ebp
  00001	8b ec		 mov	 ebp, esp
  00003	51		 push	 ecx
; Line 161
  00004	8b 55 08	 mov	 edx, DWORD PTR _guidOne$[ebp]
  00007	8b 45 0c	 mov	 eax, DWORD PTR _guidOther$[ebp]
  0000a	56		 push	 esi
  0000b	be 0c 00 00 00	 mov	 esi, 12			; 0000000cH
$LL7@:
  00010	8b 0a		 mov	 ecx, DWORD PTR [edx]
  00012	3b 08		 cmp	 ecx, DWORD PTR [eax]
  00014	75 1a		 jne	 SHORT $LN6@
  00016	83 c2 04	 add	 edx, 4
  00019	83 c0 04	 add	 eax, 4
  0001c	83 ee 04	 sub	 esi, 4
  0001f	73 ef		 jae	 SHORT $LL7@
  00021	c7 45 fc 01 00
	00 00		 mov	 DWORD PTR tv79[ebp], 1
; Line 194
  00028	8a 45 fc	 mov	 al, BYTE PTR tv79[ebp]
  0002b	5e		 pop	 esi
; Line 195
  0002c	8b e5		 mov	 esp, ebp
  0002e	5d		 pop	 ebp
  0002f	c3		 ret	 0
$LN6@:
; Line 161
  00030	c7 45 fc 00 00
	00 00		 mov	 DWORD PTR tv79[ebp], 0
; Line 194
  00037	8a 45 fc	 mov	 al, BYTE PTR tv79[ebp]
  0003a	5e		 pop	 esi
; Line 195
  0003b	8b e5		 mov	 esp, ebp
  0003d	5d		 pop	 ebp
  0003e	c3		 ret	 0
_==	ENDP
_TEXT	ENDS
; Function compile flags: /Ogtp
;	COMDAT _IsEqualGUID
_TEXT	SEGMENT
_rguid1$ = 8						; size = 4
_rguid2$ = 12						; size = 4
_IsEqualGUID PROC					; COMDAT
; File c:\program files (x86)\windows kits\8.1\include\shared\guiddef.h
; Line 160
  00000	55		 push	 ebp
  00001	8b ec		 mov	 ebp, esp
; Line 161
  00003	8b 55 08	 mov	 edx, DWORD PTR _rguid1$[ebp]
  00006	8b 45 0c	 mov	 eax, DWORD PTR _rguid2$[ebp]
  00009	56		 push	 esi
  0000a	be 0c 00 00 00	 mov	 esi, 12			; 0000000cH
  0000f	90		 npad	 1
$LL5@IsEqualGUI:
  00010	8b 0a		 mov	 ecx, DWORD PTR [edx]
  00012	3b 08		 cmp	 ecx, DWORD PTR [eax]
  00014	75 13		 jne	 SHORT $LN4@IsEqualGUI
  00016	83 c2 04	 add	 edx, 4
  00019	83 c0 04	 add	 eax, 4
  0001c	83 ee 04	 sub	 esi, 4
  0001f	73 ef		 jae	 SHORT $LL5@IsEqualGUI
  00021	b8 01 00 00 00	 mov	 eax, 1
  00026	5e		 pop	 esi
; Line 162
  00027	5d		 pop	 ebp
  00028	c3		 ret	 0
$LN4@IsEqualGUI:
; Line 161
  00029	33 c0		 xor	 eax, eax
  0002b	5e		 pop	 esi
; Line 162
  0002c	5d		 pop	 ebp
  0002d	c3		 ret	 0
_IsEqualGUID ENDP
_TEXT	ENDS
END
