; Listing generated by Microsoft (R) Optimizing Compiler Version 18.00.30501.0 

	TITLE	E:\GitHub\Mso_Code\4DyuchiNET_Latest\exception.cpp
	.686P
	.XMM
	include listing.inc
	.model	flat

INCLUDELIB LIBCMT
INCLUDELIB OLDNAMES

PUBLIC	?DumpException@@YAHPAU_EXCEPTION_POINTERS@@PAD@Z ; DumpException
PUBLIC	??_C@_02CPIDLAI@at?$AA@				; `string'
PUBLIC	??_C@_0P@MCKMAGCK@exception?4dump?$AA@		; `string'
PUBLIC	??_C@_0DJ@EGJHDDHA@?$CFd?5year?0?5?$CFd?5month?0?5?$CFd?5day?0?$CFd?5hou@ ; `string'
PUBLIC	??_C@_03OFAPEBGM@?$CFs?6?$AA@			; `string'
PUBLIC	??_C@_0BG@IIFMGLA@Crashed?5address?5?$CFxh?5?6?$AA@ ; `string'
PUBLIC	??_C@_0BE@OBDGCBDO@Exception?5Code?5?$CFu?5?6?$AA@ ; `string'
PUBLIC	??_C@_0BF@DKFHOBCG@Exception?5Flag?5?$CFxh?5?6?$AA@ ; `string'
PUBLIC	??_C@_0BG@BIFONCCI@NumberParameters?5?$CFd?5?6?$AA@ ; `string'
PUBLIC	??_C@_09LNPCPPOM@Dr0?5?$CFxh?5?6?$AA@		; `string'
PUBLIC	??_C@_09HBFIPPHC@Dr1?5?$CFxh?5?6?$AA@		; `string'
PUBLIC	??_C@_09PPNHPIJB@Dr2?5?$CFxh?5?6?$AA@		; `string'
PUBLIC	??_C@_09DDHNPIAP@Dr3?5?$CFxh?5?6?$AA@		; `string'
PUBLIC	??_C@_09HLJNPGGL@Dr6?5?$CFxh?5?6?$AA@		; `string'
PUBLIC	??_C@_09LHDHPGPF@Dr7?5?$CFxh?5?6?$AA@		; `string'
PUBLIC	??_C@_0M@CIBFBLDD@SegGs?5?$CFxh?5?6?$AA@	; `string'
PUBLIC	??_C@_0M@DPGOAPHA@SegFs?5?$CFxh?5?6?$AA@	; `string'
PUBLIC	??_C@_0M@GODDDLF@SegEs?5?$CFxh?5?6?$AA@		; `string'
PUBLIC	??_C@_0N@JMAPOPOL@EFlags?5?$CFxh?5?6?$AA@	; `string'
PUBLIC	??_C@_09PCCGIHM@Esi?5?$CFxh?5?6?$AA@		; `string'
PUBLIC	??_C@_09MHIDEHME@Edi?5?$CFxh?5?6?$AA@		; `string'
PUBLIC	??_C@_09NHGNBEEO@Ebp?5?$CFxh?5?6?$AA@		; `string'
PUBLIC	??_C@_09GMNGECHM@Esp?5?$CFxh?5?6?$AA@		; `string'
PUBLIC	??_C@_09FFDIIKJD@Eip?5?$CFxh?5?6?$AA@		; `string'
PUBLIC	??_C@_09DNAFDDDO@Eax?5?$CFxh?5?6?$AA@		; `string'
PUBLIC	??_C@_09EIIAPPL@Ebx?5?$CFxh?5?6?$AA@		; `string'
PUBLIC	??_C@_09BDPDBLLI@Ecx?5?$CFxh?5?6?$AA@		; `string'
PUBLIC	??_C@_09HHJCHGHB@Edx?5?$CFxh?5?6?$AA@		; `string'
PUBLIC	??_C@_02PHMGELLB@?6?6?$AA@			; `string'
PUBLIC	??_C@_09FBNMMHMJ@Exception?$AA@			; `string'
PUBLIC	??_C@_0DA@DDLIMIDL@Exception?5Occured?4Reference?5exce@ ; `string'
EXTRN	__imp__GetLocalTime@4:PROC
EXTRN	__imp__MessageBoxA@16:PROC
EXTRN	_fclose:PROC
EXTRN	_fopen_s:PROC
EXTRN	_fprintf:PROC
EXTRN	@__security_check_cookie@4:PROC
EXTRN	___security_cookie:DWORD
;	COMDAT ??_C@_0DA@DDLIMIDL@Exception?5Occured?4Reference?5exce@
CONST	SEGMENT
??_C@_0DA@DDLIMIDL@Exception?5Occured?4Reference?5exce@ DB 'Exception Occ'
	DB	'ured.Reference exception.dump file', 00H	; `string'
CONST	ENDS
;	COMDAT ??_C@_09FBNMMHMJ@Exception?$AA@
CONST	SEGMENT
??_C@_09FBNMMHMJ@Exception?$AA@ DB 'Exception', 00H	; `string'
CONST	ENDS
;	COMDAT ??_C@_02PHMGELLB@?6?6?$AA@
CONST	SEGMENT
??_C@_02PHMGELLB@?6?6?$AA@ DB 0aH, 0aH, 00H		; `string'
CONST	ENDS
;	COMDAT ??_C@_09HHJCHGHB@Edx?5?$CFxh?5?6?$AA@
CONST	SEGMENT
??_C@_09HHJCHGHB@Edx?5?$CFxh?5?6?$AA@ DB 'Edx %xh ', 0aH, 00H ; `string'
CONST	ENDS
;	COMDAT ??_C@_09BDPDBLLI@Ecx?5?$CFxh?5?6?$AA@
CONST	SEGMENT
??_C@_09BDPDBLLI@Ecx?5?$CFxh?5?6?$AA@ DB 'Ecx %xh ', 0aH, 00H ; `string'
CONST	ENDS
;	COMDAT ??_C@_09EIIAPPL@Ebx?5?$CFxh?5?6?$AA@
CONST	SEGMENT
??_C@_09EIIAPPL@Ebx?5?$CFxh?5?6?$AA@ DB 'Ebx %xh ', 0aH, 00H ; `string'
CONST	ENDS
;	COMDAT ??_C@_09DNAFDDDO@Eax?5?$CFxh?5?6?$AA@
CONST	SEGMENT
??_C@_09DNAFDDDO@Eax?5?$CFxh?5?6?$AA@ DB 'Eax %xh ', 0aH, 00H ; `string'
CONST	ENDS
;	COMDAT ??_C@_09FFDIIKJD@Eip?5?$CFxh?5?6?$AA@
CONST	SEGMENT
??_C@_09FFDIIKJD@Eip?5?$CFxh?5?6?$AA@ DB 'Eip %xh ', 0aH, 00H ; `string'
CONST	ENDS
;	COMDAT ??_C@_09GMNGECHM@Esp?5?$CFxh?5?6?$AA@
CONST	SEGMENT
??_C@_09GMNGECHM@Esp?5?$CFxh?5?6?$AA@ DB 'Esp %xh ', 0aH, 00H ; `string'
CONST	ENDS
;	COMDAT ??_C@_09NHGNBEEO@Ebp?5?$CFxh?5?6?$AA@
CONST	SEGMENT
??_C@_09NHGNBEEO@Ebp?5?$CFxh?5?6?$AA@ DB 'Ebp %xh ', 0aH, 00H ; `string'
CONST	ENDS
;	COMDAT ??_C@_09MHIDEHME@Edi?5?$CFxh?5?6?$AA@
CONST	SEGMENT
??_C@_09MHIDEHME@Edi?5?$CFxh?5?6?$AA@ DB 'Edi %xh ', 0aH, 00H ; `string'
CONST	ENDS
;	COMDAT ??_C@_09PCCGIHM@Esi?5?$CFxh?5?6?$AA@
CONST	SEGMENT
??_C@_09PCCGIHM@Esi?5?$CFxh?5?6?$AA@ DB 'Esi %xh ', 0aH, 00H ; `string'
CONST	ENDS
;	COMDAT ??_C@_0N@JMAPOPOL@EFlags?5?$CFxh?5?6?$AA@
CONST	SEGMENT
??_C@_0N@JMAPOPOL@EFlags?5?$CFxh?5?6?$AA@ DB 'EFlags %xh ', 0aH, 00H ; `string'
CONST	ENDS
;	COMDAT ??_C@_0M@GODDDLF@SegEs?5?$CFxh?5?6?$AA@
CONST	SEGMENT
??_C@_0M@GODDDLF@SegEs?5?$CFxh?5?6?$AA@ DB 'SegEs %xh ', 0aH, 00H ; `string'
CONST	ENDS
;	COMDAT ??_C@_0M@DPGOAPHA@SegFs?5?$CFxh?5?6?$AA@
CONST	SEGMENT
??_C@_0M@DPGOAPHA@SegFs?5?$CFxh?5?6?$AA@ DB 'SegFs %xh ', 0aH, 00H ; `string'
CONST	ENDS
;	COMDAT ??_C@_0M@CIBFBLDD@SegGs?5?$CFxh?5?6?$AA@
CONST	SEGMENT
??_C@_0M@CIBFBLDD@SegGs?5?$CFxh?5?6?$AA@ DB 'SegGs %xh ', 0aH, 00H ; `string'
CONST	ENDS
;	COMDAT ??_C@_09LHDHPGPF@Dr7?5?$CFxh?5?6?$AA@
CONST	SEGMENT
??_C@_09LHDHPGPF@Dr7?5?$CFxh?5?6?$AA@ DB 'Dr7 %xh ', 0aH, 00H ; `string'
CONST	ENDS
;	COMDAT ??_C@_09HLJNPGGL@Dr6?5?$CFxh?5?6?$AA@
CONST	SEGMENT
??_C@_09HLJNPGGL@Dr6?5?$CFxh?5?6?$AA@ DB 'Dr6 %xh ', 0aH, 00H ; `string'
CONST	ENDS
;	COMDAT ??_C@_09DDHNPIAP@Dr3?5?$CFxh?5?6?$AA@
CONST	SEGMENT
??_C@_09DDHNPIAP@Dr3?5?$CFxh?5?6?$AA@ DB 'Dr3 %xh ', 0aH, 00H ; `string'
CONST	ENDS
;	COMDAT ??_C@_09PPNHPIJB@Dr2?5?$CFxh?5?6?$AA@
CONST	SEGMENT
??_C@_09PPNHPIJB@Dr2?5?$CFxh?5?6?$AA@ DB 'Dr2 %xh ', 0aH, 00H ; `string'
CONST	ENDS
;	COMDAT ??_C@_09HBFIPPHC@Dr1?5?$CFxh?5?6?$AA@
CONST	SEGMENT
??_C@_09HBFIPPHC@Dr1?5?$CFxh?5?6?$AA@ DB 'Dr1 %xh ', 0aH, 00H ; `string'
CONST	ENDS
;	COMDAT ??_C@_09LNPCPPOM@Dr0?5?$CFxh?5?6?$AA@
CONST	SEGMENT
??_C@_09LNPCPPOM@Dr0?5?$CFxh?5?6?$AA@ DB 'Dr0 %xh ', 0aH, 00H ; `string'
CONST	ENDS
;	COMDAT ??_C@_0BG@BIFONCCI@NumberParameters?5?$CFd?5?6?$AA@
CONST	SEGMENT
??_C@_0BG@BIFONCCI@NumberParameters?5?$CFd?5?6?$AA@ DB 'NumberParameters '
	DB	'%d ', 0aH, 00H				; `string'
CONST	ENDS
;	COMDAT ??_C@_0BF@DKFHOBCG@Exception?5Flag?5?$CFxh?5?6?$AA@
CONST	SEGMENT
??_C@_0BF@DKFHOBCG@Exception?5Flag?5?$CFxh?5?6?$AA@ DB 'Exception Flag %x'
	DB	'h ', 0aH, 00H				; `string'
CONST	ENDS
;	COMDAT ??_C@_0BE@OBDGCBDO@Exception?5Code?5?$CFu?5?6?$AA@
CONST	SEGMENT
??_C@_0BE@OBDGCBDO@Exception?5Code?5?$CFu?5?6?$AA@ DB 'Exception Code %u '
	DB	0aH, 00H					; `string'
CONST	ENDS
;	COMDAT ??_C@_0BG@IIFMGLA@Crashed?5address?5?$CFxh?5?6?$AA@
CONST	SEGMENT
??_C@_0BG@IIFMGLA@Crashed?5address?5?$CFxh?5?6?$AA@ DB 'Crashed address %'
	DB	'xh ', 0aH, 00H				; `string'
CONST	ENDS
;	COMDAT ??_C@_03OFAPEBGM@?$CFs?6?$AA@
CONST	SEGMENT
??_C@_03OFAPEBGM@?$CFs?6?$AA@ DB '%s', 0aH, 00H		; `string'
CONST	ENDS
;	COMDAT ??_C@_0DJ@EGJHDDHA@?$CFd?5year?0?5?$CFd?5month?0?5?$CFd?5day?0?$CFd?5hou@
CONST	SEGMENT
??_C@_0DJ@EGJHDDHA@?$CFd?5year?0?5?$CFd?5month?0?5?$CFd?5day?0?$CFd?5hou@ DB '%'
	DB	'd year, %d month, %d day,%d hour, %d minute, %d second', 0aH, 00H ; `string'
CONST	ENDS
;	COMDAT ??_C@_0P@MCKMAGCK@exception?4dump?$AA@
CONST	SEGMENT
??_C@_0P@MCKMAGCK@exception?4dump?$AA@ DB 'exception.dump', 00H ; `string'
CONST	ENDS
;	COMDAT ??_C@_02CPIDLAI@at?$AA@
CONST	SEGMENT
??_C@_02CPIDLAI@at?$AA@ DB 'at', 00H			; `string'
CONST	ENDS
; Function compile flags: /Ogtp
;	COMDAT ?DumpException@@YAHPAU_EXCEPTION_POINTERS@@PAD@Z
_TEXT	SEGMENT
_dwNumberParameters$1$ = -108				; size = 4
_dwDr2$1$ = -104					; size = 4
_dwEdx$1$ = -100					; size = 4
_dwSegGs$1$ = -96					; size = 4
_dwEcx$1$ = -92						; size = 4
_szOutMsg$GSCopy$1$ = -88				; size = 4
_dwEbx$1$ = -84						; size = 4
_dwDr6$1$ = -80						; size = 4
_dwEax$1$ = -76						; size = 4
_dwDr0$1$ = -72						; size = 4
_dwEip$1$ = -68						; size = 4
_dwSegFs$1$ = -64					; size = 4
_dwEsp$1$ = -60						; size = 4
_dwDr7$1$ = -56						; size = 4
_dwEbp$1$ = -52						; size = 4
_dwDr3$1$ = -48						; size = 4
_dwEdi$1$ = -44						; size = 4
_dwDr1$1$ = -40						; size = 4
_dwEsi$1$ = -36						; size = 4
_dwEFlags$1$ = -32					; size = 4
_dwSegEs$1$ = -28					; size = 4
_fp$ = -24						; size = 4
_time$ = -20						; size = 16
__$ArrayPad$ = -4					; size = 4
_lpExcep$ = 8						; size = 4
_szOutMsg$ = 12						; size = 4
?DumpException@@YAHPAU_EXCEPTION_POINTERS@@PAD@Z PROC	; DumpException, COMDAT
; File e:\github\mso_code\4dyuchinet_latest\exception.cpp
; Line 4
  00000	55		 push	 ebp
  00001	8b ec		 mov	 ebp, esp
  00003	83 ec 6c	 sub	 esp, 108		; 0000006cH
  00006	a1 00 00 00 00	 mov	 eax, DWORD PTR ___security_cookie
  0000b	33 c5		 xor	 eax, ebp
  0000d	89 45 fc	 mov	 DWORD PTR __$ArrayPad$[ebp], eax
  00010	8b 4d 08	 mov	 ecx, DWORD PTR _lpExcep$[ebp]
  00013	8b 45 0c	 mov	 eax, DWORD PTR _szOutMsg$[ebp]
  00016	89 45 a8	 mov	 DWORD PTR _szOutMsg$GSCopy$1$[ebp], eax
; Line 5
  00019	85 c9		 test	 ecx, ecx
  0001b	75 10		 jne	 SHORT $LN1@DumpExcept
; Line 6
  0001d	33 c0		 xor	 eax, eax
; Line 83
  0001f	8b 4d fc	 mov	 ecx, DWORD PTR __$ArrayPad$[ebp]
  00022	33 cd		 xor	 ecx, ebp
  00024	e8 00 00 00 00	 call	 @__security_check_cookie@4
  00029	8b e5		 mov	 esp, ebp
  0002b	5d		 pop	 ebp
  0002c	c3		 ret	 0
$LN1@DumpExcept:
; Line 12
  0002d	8b 01		 mov	 eax, DWORD PTR [ecx]
  0002f	c7 45 e8 00 00
	00 00		 mov	 DWORD PTR _fp$[ebp], 0
  00036	53		 push	 ebx
  00037	56		 push	 esi
  00038	8b 70 0c	 mov	 esi, DWORD PTR [eax+12]
; Line 14
  0003b	8b 58 04	 mov	 ebx, DWORD PTR [eax+4]
  0003e	57		 push	 edi
  0003f	8b 38		 mov	 edi, DWORD PTR [eax]
; Line 15
  00041	8b 40 10	 mov	 eax, DWORD PTR [eax+16]
  00044	89 45 94	 mov	 DWORD PTR _dwNumberParameters$1$[ebp], eax
; Line 16
  00047	8b 41 04	 mov	 eax, DWORD PTR [ecx+4]
  0004a	8b 48 04	 mov	 ecx, DWORD PTR [eax+4]
  0004d	89 4d b8	 mov	 DWORD PTR _dwDr0$1$[ebp], ecx
; Line 17
  00050	8b 48 08	 mov	 ecx, DWORD PTR [eax+8]
  00053	89 4d d8	 mov	 DWORD PTR _dwDr1$1$[ebp], ecx
; Line 18
  00056	8b 48 0c	 mov	 ecx, DWORD PTR [eax+12]
  00059	89 4d 98	 mov	 DWORD PTR _dwDr2$1$[ebp], ecx
; Line 19
  0005c	8b 48 10	 mov	 ecx, DWORD PTR [eax+16]
  0005f	89 4d d0	 mov	 DWORD PTR _dwDr3$1$[ebp], ecx
; Line 20
  00062	8b 48 14	 mov	 ecx, DWORD PTR [eax+20]
  00065	89 4d b0	 mov	 DWORD PTR _dwDr6$1$[ebp], ecx
; Line 21
  00068	8b 48 18	 mov	 ecx, DWORD PTR [eax+24]
  0006b	89 4d c8	 mov	 DWORD PTR _dwDr7$1$[ebp], ecx
; Line 22
  0006e	8b 88 8c 00 00
	00		 mov	 ecx, DWORD PTR [eax+140]
  00074	89 4d a0	 mov	 DWORD PTR _dwSegGs$1$[ebp], ecx
; Line 23
  00077	8b 88 90 00 00
	00		 mov	 ecx, DWORD PTR [eax+144]
  0007d	89 4d c0	 mov	 DWORD PTR _dwSegFs$1$[ebp], ecx
; Line 24
  00080	8b 88 94 00 00
	00		 mov	 ecx, DWORD PTR [eax+148]
  00086	89 4d e4	 mov	 DWORD PTR _dwSegEs$1$[ebp], ecx
; Line 25
  00089	8b 88 c0 00 00
	00		 mov	 ecx, DWORD PTR [eax+192]
  0008f	89 4d e0	 mov	 DWORD PTR _dwEFlags$1$[ebp], ecx
; Line 27
  00092	8b 88 a0 00 00
	00		 mov	 ecx, DWORD PTR [eax+160]
  00098	89 4d dc	 mov	 DWORD PTR _dwEsi$1$[ebp], ecx
; Line 28
  0009b	8b 88 9c 00 00
	00		 mov	 ecx, DWORD PTR [eax+156]
  000a1	89 4d d4	 mov	 DWORD PTR _dwEdi$1$[ebp], ecx
; Line 29
  000a4	8b 88 b4 00 00
	00		 mov	 ecx, DWORD PTR [eax+180]
  000aa	89 4d cc	 mov	 DWORD PTR _dwEbp$1$[ebp], ecx
; Line 30
  000ad	8b 88 c4 00 00
	00		 mov	 ecx, DWORD PTR [eax+196]
  000b3	89 4d c4	 mov	 DWORD PTR _dwEsp$1$[ebp], ecx
; Line 31
  000b6	8b 88 b8 00 00
	00		 mov	 ecx, DWORD PTR [eax+184]
  000bc	89 4d bc	 mov	 DWORD PTR _dwEip$1$[ebp], ecx
; Line 33
  000bf	8b 88 b0 00 00
	00		 mov	 ecx, DWORD PTR [eax+176]
  000c5	89 4d b4	 mov	 DWORD PTR _dwEax$1$[ebp], ecx
; Line 34
  000c8	8b 88 a4 00 00
	00		 mov	 ecx, DWORD PTR [eax+164]
  000ce	89 4d ac	 mov	 DWORD PTR _dwEbx$1$[ebp], ecx
; Line 35
  000d1	8b 88 ac 00 00
	00		 mov	 ecx, DWORD PTR [eax+172]
; Line 36
  000d7	8b 80 a8 00 00
	00		 mov	 eax, DWORD PTR [eax+168]
  000dd	89 45 9c	 mov	 DWORD PTR _dwEdx$1$[ebp], eax
; Line 39
  000e0	8d 45 ec	 lea	 eax, DWORD PTR _time$[ebp]
  000e3	50		 push	 eax
  000e4	89 4d a4	 mov	 DWORD PTR _dwEcx$1$[ebp], ecx
  000e7	ff 15 00 00 00
	00		 call	 DWORD PTR __imp__GetLocalTime@4
; Line 40
  000ed	68 00 00 00 00	 push	 OFFSET ??_C@_02CPIDLAI@at?$AA@
  000f2	8d 45 e8	 lea	 eax, DWORD PTR _fp$[ebp]
  000f5	68 00 00 00 00	 push	 OFFSET ??_C@_0P@MCKMAGCK@exception?4dump?$AA@
  000fa	50		 push	 eax
  000fb	e8 00 00 00 00	 call	 _fopen_s
; Line 43
  00100	0f b7 45 f8	 movzx	 eax, WORD PTR _time$[ebp+12]
  00104	50		 push	 eax
  00105	0f b7 45 f6	 movzx	 eax, WORD PTR _time$[ebp+10]
  00109	50		 push	 eax
  0010a	0f b7 45 f2	 movzx	 eax, WORD PTR _time$[ebp+6]
  0010e	50		 push	 eax
  0010f	0f b7 45 ee	 movzx	 eax, WORD PTR _time$[ebp+2]
  00113	50		 push	 eax
  00114	0f b7 45 ec	 movzx	 eax, WORD PTR _time$[ebp]
  00118	50		 push	 eax
  00119	68 00 00 00 00	 push	 OFFSET ??_C@_0DJ@EGJHDDHA@?$CFd?5year?0?5?$CFd?5month?0?5?$CFd?5day?0?$CFd?5hou@
  0011e	ff 75 e8	 push	 DWORD PTR _fp$[ebp]
  00121	e8 00 00 00 00	 call	 _fprintf
; Line 45
  00126	ff 75 a8	 push	 DWORD PTR _szOutMsg$GSCopy$1$[ebp]
  00129	68 00 00 00 00	 push	 OFFSET ??_C@_03OFAPEBGM@?$CFs?6?$AA@
  0012e	ff 75 e8	 push	 DWORD PTR _fp$[ebp]
  00131	e8 00 00 00 00	 call	 _fprintf
; Line 46
  00136	56		 push	 esi
  00137	68 00 00 00 00	 push	 OFFSET ??_C@_0BG@IIFMGLA@Crashed?5address?5?$CFxh?5?6?$AA@
  0013c	ff 75 e8	 push	 DWORD PTR _fp$[ebp]
  0013f	e8 00 00 00 00	 call	 _fprintf
  00144	83 c4 40	 add	 esp, 64			; 00000040H
; Line 47
  00147	57		 push	 edi
  00148	68 00 00 00 00	 push	 OFFSET ??_C@_0BE@OBDGCBDO@Exception?5Code?5?$CFu?5?6?$AA@
  0014d	ff 75 e8	 push	 DWORD PTR _fp$[ebp]
  00150	e8 00 00 00 00	 call	 _fprintf
; Line 48
  00155	53		 push	 ebx
  00156	68 00 00 00 00	 push	 OFFSET ??_C@_0BF@DKFHOBCG@Exception?5Flag?5?$CFxh?5?6?$AA@
  0015b	ff 75 e8	 push	 DWORD PTR _fp$[ebp]
  0015e	e8 00 00 00 00	 call	 _fprintf
; Line 49
  00163	ff 75 94	 push	 DWORD PTR _dwNumberParameters$1$[ebp]
  00166	68 00 00 00 00	 push	 OFFSET ??_C@_0BG@BIFONCCI@NumberParameters?5?$CFd?5?6?$AA@
  0016b	ff 75 e8	 push	 DWORD PTR _fp$[ebp]
  0016e	e8 00 00 00 00	 call	 _fprintf
; Line 50
  00173	ff 75 b8	 push	 DWORD PTR _dwDr0$1$[ebp]
  00176	68 00 00 00 00	 push	 OFFSET ??_C@_09LNPCPPOM@Dr0?5?$CFxh?5?6?$AA@
  0017b	ff 75 e8	 push	 DWORD PTR _fp$[ebp]
  0017e	e8 00 00 00 00	 call	 _fprintf
; Line 51
  00183	ff 75 d8	 push	 DWORD PTR _dwDr1$1$[ebp]
  00186	68 00 00 00 00	 push	 OFFSET ??_C@_09HBFIPPHC@Dr1?5?$CFxh?5?6?$AA@
  0018b	ff 75 e8	 push	 DWORD PTR _fp$[ebp]
  0018e	e8 00 00 00 00	 call	 _fprintf
; Line 52
  00193	ff 75 98	 push	 DWORD PTR _dwDr2$1$[ebp]
  00196	68 00 00 00 00	 push	 OFFSET ??_C@_09PPNHPIJB@Dr2?5?$CFxh?5?6?$AA@
  0019b	ff 75 e8	 push	 DWORD PTR _fp$[ebp]
  0019e	e8 00 00 00 00	 call	 _fprintf
  001a3	83 c4 48	 add	 esp, 72			; 00000048H
; Line 53
  001a6	ff 75 d0	 push	 DWORD PTR _dwDr3$1$[ebp]
  001a9	68 00 00 00 00	 push	 OFFSET ??_C@_09DDHNPIAP@Dr3?5?$CFxh?5?6?$AA@
  001ae	ff 75 e8	 push	 DWORD PTR _fp$[ebp]
  001b1	e8 00 00 00 00	 call	 _fprintf
; Line 54
  001b6	ff 75 b0	 push	 DWORD PTR _dwDr6$1$[ebp]
  001b9	68 00 00 00 00	 push	 OFFSET ??_C@_09HLJNPGGL@Dr6?5?$CFxh?5?6?$AA@
  001be	ff 75 e8	 push	 DWORD PTR _fp$[ebp]
  001c1	e8 00 00 00 00	 call	 _fprintf
; Line 55
  001c6	ff 75 c8	 push	 DWORD PTR _dwDr7$1$[ebp]
  001c9	68 00 00 00 00	 push	 OFFSET ??_C@_09LHDHPGPF@Dr7?5?$CFxh?5?6?$AA@
  001ce	ff 75 e8	 push	 DWORD PTR _fp$[ebp]
  001d1	e8 00 00 00 00	 call	 _fprintf
; Line 57
  001d6	ff 75 a0	 push	 DWORD PTR _dwSegGs$1$[ebp]
  001d9	68 00 00 00 00	 push	 OFFSET ??_C@_0M@CIBFBLDD@SegGs?5?$CFxh?5?6?$AA@
  001de	ff 75 e8	 push	 DWORD PTR _fp$[ebp]
  001e1	e8 00 00 00 00	 call	 _fprintf
; Line 58
  001e6	ff 75 c0	 push	 DWORD PTR _dwSegFs$1$[ebp]
  001e9	68 00 00 00 00	 push	 OFFSET ??_C@_0M@DPGOAPHA@SegFs?5?$CFxh?5?6?$AA@
  001ee	ff 75 e8	 push	 DWORD PTR _fp$[ebp]
  001f1	e8 00 00 00 00	 call	 _fprintf
; Line 59
  001f6	ff 75 e4	 push	 DWORD PTR _dwSegEs$1$[ebp]
  001f9	68 00 00 00 00	 push	 OFFSET ??_C@_0M@GODDDLF@SegEs?5?$CFxh?5?6?$AA@
  001fe	ff 75 e8	 push	 DWORD PTR _fp$[ebp]
  00201	e8 00 00 00 00	 call	 _fprintf
  00206	83 c4 48	 add	 esp, 72			; 00000048H
; Line 60
  00209	ff 75 e0	 push	 DWORD PTR _dwEFlags$1$[ebp]
  0020c	68 00 00 00 00	 push	 OFFSET ??_C@_0N@JMAPOPOL@EFlags?5?$CFxh?5?6?$AA@
  00211	ff 75 e8	 push	 DWORD PTR _fp$[ebp]
  00214	e8 00 00 00 00	 call	 _fprintf
; Line 62
  00219	ff 75 dc	 push	 DWORD PTR _dwEsi$1$[ebp]
  0021c	68 00 00 00 00	 push	 OFFSET ??_C@_09PCCGIHM@Esi?5?$CFxh?5?6?$AA@
  00221	ff 75 e8	 push	 DWORD PTR _fp$[ebp]
  00224	e8 00 00 00 00	 call	 _fprintf
; Line 63
  00229	ff 75 d4	 push	 DWORD PTR _dwEdi$1$[ebp]
  0022c	68 00 00 00 00	 push	 OFFSET ??_C@_09MHIDEHME@Edi?5?$CFxh?5?6?$AA@
  00231	ff 75 e8	 push	 DWORD PTR _fp$[ebp]
  00234	e8 00 00 00 00	 call	 _fprintf
; Line 64
  00239	ff 75 cc	 push	 DWORD PTR _dwEbp$1$[ebp]
  0023c	68 00 00 00 00	 push	 OFFSET ??_C@_09NHGNBEEO@Ebp?5?$CFxh?5?6?$AA@
  00241	ff 75 e8	 push	 DWORD PTR _fp$[ebp]
  00244	e8 00 00 00 00	 call	 _fprintf
; Line 65
  00249	ff 75 c4	 push	 DWORD PTR _dwEsp$1$[ebp]
  0024c	68 00 00 00 00	 push	 OFFSET ??_C@_09GMNGECHM@Esp?5?$CFxh?5?6?$AA@
  00251	ff 75 e8	 push	 DWORD PTR _fp$[ebp]
  00254	e8 00 00 00 00	 call	 _fprintf
; Line 66
  00259	ff 75 bc	 push	 DWORD PTR _dwEip$1$[ebp]
  0025c	68 00 00 00 00	 push	 OFFSET ??_C@_09FFDIIKJD@Eip?5?$CFxh?5?6?$AA@
  00261	ff 75 e8	 push	 DWORD PTR _fp$[ebp]
  00264	e8 00 00 00 00	 call	 _fprintf
  00269	83 c4 48	 add	 esp, 72			; 00000048H
; Line 69
  0026c	ff 75 b4	 push	 DWORD PTR _dwEax$1$[ebp]
  0026f	68 00 00 00 00	 push	 OFFSET ??_C@_09DNAFDDDO@Eax?5?$CFxh?5?6?$AA@
  00274	ff 75 e8	 push	 DWORD PTR _fp$[ebp]
  00277	e8 00 00 00 00	 call	 _fprintf
; Line 70
  0027c	ff 75 ac	 push	 DWORD PTR _dwEbx$1$[ebp]
  0027f	68 00 00 00 00	 push	 OFFSET ??_C@_09EIIAPPL@Ebx?5?$CFxh?5?6?$AA@
  00284	ff 75 e8	 push	 DWORD PTR _fp$[ebp]
  00287	e8 00 00 00 00	 call	 _fprintf
; Line 71
  0028c	ff 75 a4	 push	 DWORD PTR _dwEcx$1$[ebp]
  0028f	68 00 00 00 00	 push	 OFFSET ??_C@_09BDPDBLLI@Ecx?5?$CFxh?5?6?$AA@
  00294	ff 75 e8	 push	 DWORD PTR _fp$[ebp]
  00297	e8 00 00 00 00	 call	 _fprintf
; Line 72
  0029c	ff 75 9c	 push	 DWORD PTR _dwEdx$1$[ebp]
  0029f	68 00 00 00 00	 push	 OFFSET ??_C@_09HHJCHGHB@Edx?5?$CFxh?5?6?$AA@
  002a4	ff 75 e8	 push	 DWORD PTR _fp$[ebp]
  002a7	e8 00 00 00 00	 call	 _fprintf
; Line 74
  002ac	68 00 00 00 00	 push	 OFFSET ??_C@_02PHMGELLB@?6?6?$AA@
  002b1	ff 75 e8	 push	 DWORD PTR _fp$[ebp]
  002b4	e8 00 00 00 00	 call	 _fprintf
; Line 76
  002b9	ff 75 e8	 push	 DWORD PTR _fp$[ebp]
  002bc	e8 00 00 00 00	 call	 _fclose
  002c1	83 c4 3c	 add	 esp, 60			; 0000003cH
; Line 77
  002c4	c7 45 e8 00 00
	00 00		 mov	 DWORD PTR _fp$[ebp], 0
; Line 79
  002cb	6a 00		 push	 0
  002cd	68 00 00 00 00	 push	 OFFSET ??_C@_09FBNMMHMJ@Exception?$AA@
  002d2	68 00 00 00 00	 push	 OFFSET ??_C@_0DA@DDLIMIDL@Exception?5Occured?4Reference?5exce@
  002d7	6a 00		 push	 0
  002d9	ff 15 00 00 00
	00		 call	 DWORD PTR __imp__MessageBoxA@16
; Line 83
  002df	8b 4d fc	 mov	 ecx, DWORD PTR __$ArrayPad$[ebp]
  002e2	b8 01 00 00 00	 mov	 eax, 1
  002e7	5f		 pop	 edi
  002e8	5e		 pop	 esi
  002e9	33 cd		 xor	 ecx, ebp
  002eb	5b		 pop	 ebx
  002ec	e8 00 00 00 00	 call	 @__security_check_cookie@4
  002f1	8b e5		 mov	 esp, ebp
  002f3	5d		 pop	 ebp
  002f4	c3		 ret	 0
?DumpException@@YAHPAU_EXCEPTION_POINTERS@@PAD@Z ENDP	; DumpException
_TEXT	ENDS
END
