; Listing generated by Microsoft (R) Optimizing Compiler Version 18.00.30501.0 

	TITLE	E:\GitHub\Mso_Code\4DyuchiNET_Latest\factory.cpp
	.686P
	.XMM
	include listing.inc
	.model	flat

INCLUDELIB LIBCMT
INCLUDELIB OLDNAMES

PUBLIC	_CLSID_4DyuchiNET
PUBLIC	_IID_4DyuchiNET
;	COMDAT _IID_4DyuchiNET
CONST	SEGMENT
_IID_4DyuchiNET DD 0d41bd0f8H
	DW	07bfH
	DW	04dbcH
	DB	08aH
	DB	0d3H
	DB	0a3H
	DB	052H
	DB	04cH
	DB	0c4H
	DB	03eH
	DB	05eH
CONST	ENDS
;	COMDAT _CLSID_4DyuchiNET
CONST	SEGMENT
_CLSID_4DyuchiNET DD 011c02a88H
	DW	08bf9H
	DW	04863H
	DB	0a7H
	DB	0deH
	DB	01bH
	DB	0f6H
	DB	06dH
	DB	060H
	DB	0cbH
	DB	0a3H
CONST	ENDS
PUBLIC	_IsEqualGUID
PUBLIC	_==
PUBLIC	_!=
PUBLIC	??0IUnknown@@QAE@XZ				; IUnknown::IUnknown
PUBLIC	??0IClassFactory@@QAE@XZ			; IClassFactory::IClassFactory
PUBLIC	?QueryInterface@CF4DyuchiNET@@UAGJABU_GUID@@PAPAX@Z ; CF4DyuchiNET::QueryInterface
PUBLIC	?AddRef@CF4DyuchiNET@@UAGKXZ			; CF4DyuchiNET::AddRef
PUBLIC	?Release@CF4DyuchiNET@@UAGKXZ			; CF4DyuchiNET::Release
PUBLIC	?CreateInstance@CF4DyuchiNET@@UAGJPAUIUnknown@@ABU_GUID@@PAPAX@Z ; CF4DyuchiNET::CreateInstance
PUBLIC	?LockServer@CF4DyuchiNET@@UAGJH@Z		; CF4DyuchiNET::LockServer
PUBLIC	??0CF4DyuchiNET@@QAE@XZ				; CF4DyuchiNET::CF4DyuchiNET
PUBLIC	??1CF4DyuchiNET@@QAE@XZ				; CF4DyuchiNET::~CF4DyuchiNET
PUBLIC	??_GCF4DyuchiNET@@QAEPAXI@Z			; CF4DyuchiNET::`scalar deleting destructor'
PUBLIC	??_GCo4DyuchiNET@@QAEPAXI@Z			; Co4DyuchiNET::`scalar deleting destructor'
PUBLIC	??_7CF4DyuchiNET@@6B@				; CF4DyuchiNET::`vftable'
PUBLIC	??_R0?AUIUnknown@@@8				; IUnknown `RTTI Type Descriptor'
PUBLIC	??_R3IUnknown@@8				; IUnknown::`RTTI Class Hierarchy Descriptor'
PUBLIC	??_R2IUnknown@@8				; IUnknown::`RTTI Base Class Array'
PUBLIC	??_R1A@?0A@EA@IUnknown@@8			; IUnknown::`RTTI Base Class Descriptor at (0,-1,0,64)'
PUBLIC	??_R0?AUIClassFactory@@@8			; IClassFactory `RTTI Type Descriptor'
PUBLIC	??_R3IClassFactory@@8				; IClassFactory::`RTTI Class Hierarchy Descriptor'
PUBLIC	??_R2IClassFactory@@8				; IClassFactory::`RTTI Base Class Array'
PUBLIC	??_R1A@?0A@EA@IClassFactory@@8			; IClassFactory::`RTTI Base Class Descriptor at (0,-1,0,64)'
PUBLIC	??_R4CF4DyuchiNET@@6B@				; CF4DyuchiNET::`RTTI Complete Object Locator'
PUBLIC	??_R0?AVCF4DyuchiNET@@@8			; CF4DyuchiNET `RTTI Type Descriptor'
PUBLIC	??_R3CF4DyuchiNET@@8				; CF4DyuchiNET::`RTTI Class Hierarchy Descriptor'
PUBLIC	??_R2CF4DyuchiNET@@8				; CF4DyuchiNET::`RTTI Base Class Array'
PUBLIC	??_R1A@?0A@EA@CF4DyuchiNET@@8			; CF4DyuchiNET::`RTTI Base Class Descriptor at (0,-1,0,64)'
EXTRN	??2@YAPAXI@Z:PROC				; operator new
EXTRN	??3@YAXPAX@Z:PROC				; operator delete
EXTRN	??0Co4DyuchiNET@@QAE@XZ:PROC			; Co4DyuchiNET::Co4DyuchiNET
EXTRN	??1Co4DyuchiNET@@QAE@XZ:PROC			; Co4DyuchiNET::~Co4DyuchiNET
EXTRN	@__security_check_cookie@4:PROC
EXTRN	___CxxFrameHandler3:PROC
EXTRN	_IID_IUnknown:BYTE
EXTRN	_IID_IClassFactory:BYTE
EXTRN	??_7type_info@@6B@:QWORD			; type_info::`vftable'
EXTRN	___security_cookie:DWORD
;	COMDAT ??_R1A@?0A@EA@CF4DyuchiNET@@8
rdata$r	SEGMENT
??_R1A@?0A@EA@CF4DyuchiNET@@8 DD FLAT:??_R0?AVCF4DyuchiNET@@@8 ; CF4DyuchiNET::`RTTI Base Class Descriptor at (0,-1,0,64)'
	DD	02H
	DD	00H
	DD	0ffffffffH
	DD	00H
	DD	040H
	DD	FLAT:??_R3CF4DyuchiNET@@8
rdata$r	ENDS
;	COMDAT ??_R2CF4DyuchiNET@@8
rdata$r	SEGMENT
??_R2CF4DyuchiNET@@8 DD FLAT:??_R1A@?0A@EA@CF4DyuchiNET@@8 ; CF4DyuchiNET::`RTTI Base Class Array'
	DD	FLAT:??_R1A@?0A@EA@IClassFactory@@8
	DD	FLAT:??_R1A@?0A@EA@IUnknown@@8
rdata$r	ENDS
;	COMDAT ??_R3CF4DyuchiNET@@8
rdata$r	SEGMENT
??_R3CF4DyuchiNET@@8 DD 00H				; CF4DyuchiNET::`RTTI Class Hierarchy Descriptor'
	DD	00H
	DD	03H
	DD	FLAT:??_R2CF4DyuchiNET@@8
rdata$r	ENDS
;	COMDAT ??_R0?AVCF4DyuchiNET@@@8
data$r	SEGMENT
??_R0?AVCF4DyuchiNET@@@8 DD FLAT:??_7type_info@@6B@	; CF4DyuchiNET `RTTI Type Descriptor'
	DD	00H
	DB	'.?AVCF4DyuchiNET@@', 00H
data$r	ENDS
;	COMDAT ??_R4CF4DyuchiNET@@6B@
rdata$r	SEGMENT
??_R4CF4DyuchiNET@@6B@ DD 00H				; CF4DyuchiNET::`RTTI Complete Object Locator'
	DD	00H
	DD	00H
	DD	FLAT:??_R0?AVCF4DyuchiNET@@@8
	DD	FLAT:??_R3CF4DyuchiNET@@8
rdata$r	ENDS
;	COMDAT ??_R1A@?0A@EA@IClassFactory@@8
rdata$r	SEGMENT
??_R1A@?0A@EA@IClassFactory@@8 DD FLAT:??_R0?AUIClassFactory@@@8 ; IClassFactory::`RTTI Base Class Descriptor at (0,-1,0,64)'
	DD	01H
	DD	00H
	DD	0ffffffffH
	DD	00H
	DD	040H
	DD	FLAT:??_R3IClassFactory@@8
rdata$r	ENDS
;	COMDAT ??_R2IClassFactory@@8
rdata$r	SEGMENT
??_R2IClassFactory@@8 DD FLAT:??_R1A@?0A@EA@IClassFactory@@8 ; IClassFactory::`RTTI Base Class Array'
	DD	FLAT:??_R1A@?0A@EA@IUnknown@@8
rdata$r	ENDS
;	COMDAT ??_R3IClassFactory@@8
rdata$r	SEGMENT
??_R3IClassFactory@@8 DD 00H				; IClassFactory::`RTTI Class Hierarchy Descriptor'
	DD	00H
	DD	02H
	DD	FLAT:??_R2IClassFactory@@8
rdata$r	ENDS
;	COMDAT ??_R0?AUIClassFactory@@@8
data$r	SEGMENT
??_R0?AUIClassFactory@@@8 DD FLAT:??_7type_info@@6B@	; IClassFactory `RTTI Type Descriptor'
	DD	00H
	DB	'.?AUIClassFactory@@', 00H
data$r	ENDS
;	COMDAT ??_R1A@?0A@EA@IUnknown@@8
rdata$r	SEGMENT
??_R1A@?0A@EA@IUnknown@@8 DD FLAT:??_R0?AUIUnknown@@@8	; IUnknown::`RTTI Base Class Descriptor at (0,-1,0,64)'
	DD	00H
	DD	00H
	DD	0ffffffffH
	DD	00H
	DD	040H
	DD	FLAT:??_R3IUnknown@@8
rdata$r	ENDS
;	COMDAT ??_R2IUnknown@@8
rdata$r	SEGMENT
??_R2IUnknown@@8 DD FLAT:??_R1A@?0A@EA@IUnknown@@8	; IUnknown::`RTTI Base Class Array'
rdata$r	ENDS
;	COMDAT ??_R3IUnknown@@8
rdata$r	SEGMENT
??_R3IUnknown@@8 DD 00H					; IUnknown::`RTTI Class Hierarchy Descriptor'
	DD	00H
	DD	01H
	DD	FLAT:??_R2IUnknown@@8
rdata$r	ENDS
;	COMDAT ??_R0?AUIUnknown@@@8
data$r	SEGMENT
??_R0?AUIUnknown@@@8 DD FLAT:??_7type_info@@6B@		; IUnknown `RTTI Type Descriptor'
	DD	00H
	DB	'.?AUIUnknown@@', 00H
data$r	ENDS
;	COMDAT ??_7CF4DyuchiNET@@6B@
CONST	SEGMENT
??_7CF4DyuchiNET@@6B@ DD FLAT:??_R4CF4DyuchiNET@@6B@	; CF4DyuchiNET::`vftable'
	DD	FLAT:?QueryInterface@CF4DyuchiNET@@UAGJABU_GUID@@PAPAX@Z
	DD	FLAT:?AddRef@CF4DyuchiNET@@UAGKXZ
	DD	FLAT:?Release@CF4DyuchiNET@@UAGKXZ
	DD	FLAT:?CreateInstance@CF4DyuchiNET@@UAGJPAUIUnknown@@ABU_GUID@@PAPAX@Z
	DD	FLAT:?LockServer@CF4DyuchiNET@@UAGJH@Z
CONST	ENDS
;	COMDAT xdata$x
xdata$x	SEGMENT
__unwindtable$?CreateInstance@CF4DyuchiNET@@UAGJPAUIUnknown@@ABU_GUID@@PAPAX@Z DD 0ffffffffH
	DD	FLAT:__unwindfunclet$?CreateInstance@CF4DyuchiNET@@UAGJPAUIUnknown@@ABU_GUID@@PAPAX@Z$0
__ehfuncinfo$?CreateInstance@CF4DyuchiNET@@UAGJPAUIUnknown@@ABU_GUID@@PAPAX@Z DD 019930522H
	DD	01H
	DD	FLAT:__unwindtable$?CreateInstance@CF4DyuchiNET@@UAGJPAUIUnknown@@ABU_GUID@@PAPAX@Z
	DD	2 DUP(00H)
	DD	2 DUP(00H)
	DD	00H
	DD	01H
xdata$x	ENDS
; Function compile flags: /Ogtp
;	COMDAT ??_GCo4DyuchiNET@@QAEPAXI@Z
_TEXT	SEGMENT
___flags$ = 8						; size = 4
??_GCo4DyuchiNET@@QAEPAXI@Z PROC			; Co4DyuchiNET::`scalar deleting destructor', COMDAT
; _this$ = ecx
  00000	55		 push	 ebp
  00001	8b ec		 mov	 ebp, esp
  00003	56		 push	 esi
  00004	8b f1		 mov	 esi, ecx
  00006	e8 00 00 00 00	 call	 ??1Co4DyuchiNET@@QAE@XZ	; Co4DyuchiNET::~Co4DyuchiNET
  0000b	f6 45 08 01	 test	 BYTE PTR ___flags$[ebp], 1
  0000f	74 09		 je	 SHORT $LN4@scalar
  00011	56		 push	 esi
  00012	e8 00 00 00 00	 call	 ??3@YAXPAX@Z		; operator delete
  00017	83 c4 04	 add	 esp, 4
$LN4@scalar:
  0001a	8b c6		 mov	 eax, esi
  0001c	5e		 pop	 esi
  0001d	5d		 pop	 ebp
  0001e	c2 04 00	 ret	 4
??_GCo4DyuchiNET@@QAEPAXI@Z ENDP			; Co4DyuchiNET::`scalar deleting destructor'
_TEXT	ENDS
; Function compile flags: /Ogtp
;	COMDAT ??_GCF4DyuchiNET@@QAEPAXI@Z
_TEXT	SEGMENT
___flags$ = 8						; size = 4
??_GCF4DyuchiNET@@QAEPAXI@Z PROC			; CF4DyuchiNET::`scalar deleting destructor', COMDAT
; _this$ = ecx
  00000	55		 push	 ebp
  00001	8b ec		 mov	 ebp, esp
  00003	f6 45 08 01	 test	 BYTE PTR ___flags$[ebp], 1
  00007	56		 push	 esi
  00008	8b f1		 mov	 esi, ecx
; File e:\github\mso_code\4dyuchinet_latest\factory.cpp
; Line 71
  0000a	c7 06 00 00 00
	00		 mov	 DWORD PTR [esi], OFFSET ??_7CF4DyuchiNET@@6B@
  00010	74 09		 je	 SHORT $LN6@scalar
  00012	56		 push	 esi
  00013	e8 00 00 00 00	 call	 ??3@YAXPAX@Z		; operator delete
  00018	83 c4 04	 add	 esp, 4
$LN6@scalar:
  0001b	8b c6		 mov	 eax, esi
  0001d	5e		 pop	 esi
  0001e	5d		 pop	 ebp
  0001f	c2 04 00	 ret	 4
??_GCF4DyuchiNET@@QAEPAXI@Z ENDP			; CF4DyuchiNET::`scalar deleting destructor'
_TEXT	ENDS
; Function compile flags: /Ogtp
;	COMDAT ??1CF4DyuchiNET@@QAE@XZ
_TEXT	SEGMENT
??1CF4DyuchiNET@@QAE@XZ PROC				; CF4DyuchiNET::~CF4DyuchiNET, COMDAT
; _this$ = ecx
; File e:\github\mso_code\4dyuchinet_latest\factory.cpp
; Line 71
  00000	c7 01 00 00 00
	00		 mov	 DWORD PTR [ecx], OFFSET ??_7CF4DyuchiNET@@6B@
; Line 74
  00006	c3		 ret	 0
??1CF4DyuchiNET@@QAE@XZ ENDP				; CF4DyuchiNET::~CF4DyuchiNET
_TEXT	ENDS
; Function compile flags: /Ogtp
;	COMDAT ??0CF4DyuchiNET@@QAE@XZ
_TEXT	SEGMENT
??0CF4DyuchiNET@@QAE@XZ PROC				; CF4DyuchiNET::CF4DyuchiNET, COMDAT
; _this$ = ecx
; File e:\github\mso_code\4dyuchinet_latest\factory.cpp
; Line 6
  00000	c7 01 00 00 00
	00		 mov	 DWORD PTR [ecx], OFFSET ??_7CF4DyuchiNET@@6B@
; Line 9
  00006	8b c1		 mov	 eax, ecx
  00008	c7 41 04 00 00
	00 00		 mov	 DWORD PTR [ecx+4], 0
  0000f	c3		 ret	 0
??0CF4DyuchiNET@@QAE@XZ ENDP				; CF4DyuchiNET::CF4DyuchiNET
_TEXT	ENDS
; Function compile flags: /Ogtp
;	COMDAT ?LockServer@CF4DyuchiNET@@UAGJH@Z
_TEXT	SEGMENT
_this$ = 8						; size = 4
___formal$ = 12						; size = 4
?LockServer@CF4DyuchiNET@@UAGJH@Z PROC			; CF4DyuchiNET::LockServer, COMDAT
; File e:\github\mso_code\4dyuchinet_latest\factory.cpp
; Line 68
  00000	33 c0		 xor	 eax, eax
; Line 69
  00002	c2 08 00	 ret	 8
?LockServer@CF4DyuchiNET@@UAGJH@Z ENDP			; CF4DyuchiNET::LockServer
_TEXT	ENDS
; Function compile flags: /Ogtp
;	COMDAT ?CreateInstance@CF4DyuchiNET@@UAGJPAUIUnknown@@ABU_GUID@@PAPAX@Z
_TEXT	SEGMENT
__$EHRec$ = -12						; size = 12
_this$ = 8						; size = 4
_pUnknown$ = 12						; size = 4
_refiid$ = 16						; size = 4
$T2 = 20						; size = 4
_ppv$ = 20						; size = 4
?CreateInstance@CF4DyuchiNET@@UAGJPAUIUnknown@@ABU_GUID@@PAPAX@Z PROC ; CF4DyuchiNET::CreateInstance, COMDAT
; File e:\github\mso_code\4dyuchinet_latest\factory.cpp
; Line 41
  00000	55		 push	 ebp
  00001	8b ec		 mov	 ebp, esp
  00003	6a ff		 push	 -1
  00005	68 00 00 00 00	 push	 __ehhandler$?CreateInstance@CF4DyuchiNET@@UAGJPAUIUnknown@@ABU_GUID@@PAPAX@Z
  0000a	64 a1 00 00 00
	00		 mov	 eax, DWORD PTR fs:0
  00010	50		 push	 eax
  00011	56		 push	 esi
  00012	57		 push	 edi
  00013	a1 00 00 00 00	 mov	 eax, DWORD PTR ___security_cookie
  00018	33 c5		 xor	 eax, ebp
  0001a	50		 push	 eax
  0001b	8d 45 f4	 lea	 eax, DWORD PTR __$EHRec$[ebp]
  0001e	64 a3 00 00 00
	00		 mov	 DWORD PTR fs:0, eax
; Line 48
  00024	83 7d 0c 00	 cmp	 DWORD PTR _pUnknown$[ebp], 0
  00028	8b 7d 14	 mov	 edi, DWORD PTR _ppv$[ebp]
  0002b	c7 07 00 00 00
	00		 mov	 DWORD PTR [edi], 0
  00031	74 1e		 je	 SHORT $LN4@CreateInst
; File c:\program files (x86)\windows kits\8.1\include\shared\guiddef.h
; Line 161
  00033	8b 4d 10	 mov	 ecx, DWORD PTR _refiid$[ebp]
  00036	ba 00 00 00 00	 mov	 edx, OFFSET _IID_IUnknown
  0003b	be 0c 00 00 00	 mov	 esi, 12			; 0000000cH
$LL23@CreateInst:
  00040	8b 01		 mov	 eax, DWORD PTR [ecx]
  00042	3b 02		 cmp	 eax, DWORD PTR [edx]
  00044	75 2e		 jne	 SHORT $LN22@CreateInst
  00046	83 c1 04	 add	 ecx, 4
  00049	83 c2 04	 add	 edx, 4
  0004c	83 ee 04	 sub	 esi, 4
  0004f	73 ef		 jae	 SHORT $LL23@CreateInst
$LN4@CreateInst:
; File e:\github\mso_code\4dyuchinet_latest\factory.cpp
; Line 53
  00051	6a 08		 push	 8
  00053	e8 00 00 00 00	 call	 ??2@YAPAXI@Z		; operator new
  00058	83 c4 04	 add	 esp, 4
  0005b	89 45 14	 mov	 DWORD PTR $T2[ebp], eax
  0005e	c7 45 fc 00 00
	00 00		 mov	 DWORD PTR __$EHRec$[ebp+8], 0
  00065	85 c0		 test	 eax, eax
  00067	74 23		 je	 SHORT $LN7@CreateInst
  00069	8b c8		 mov	 ecx, eax
  0006b	e8 00 00 00 00	 call	 ??0Co4DyuchiNET@@QAE@XZ	; Co4DyuchiNET::Co4DyuchiNET
  00070	8b f0		 mov	 esi, eax
  00072	eb 1a		 jmp	 SHORT $LN8@CreateInst
$LN22@CreateInst:
; Line 64
  00074	b8 10 01 04 80	 mov	 eax, -2147221232	; 80040110H
; Line 65
  00079	8b 4d f4	 mov	 ecx, DWORD PTR __$EHRec$[ebp]
  0007c	64 89 0d 00 00
	00 00		 mov	 DWORD PTR fs:0, ecx
  00083	59		 pop	 ecx
  00084	5f		 pop	 edi
  00085	5e		 pop	 esi
  00086	8b e5		 mov	 esp, ebp
  00088	5d		 pop	 ebp
  00089	c2 10 00	 ret	 16			; 00000010H
$LN7@CreateInst:
; Line 53
  0008c	33 f6		 xor	 esi, esi
$LN8@CreateInst:
  0008e	c7 45 fc ff ff
	ff ff		 mov	 DWORD PTR __$EHRec$[ebp+8], -1
; Line 54
  00095	85 f6		 test	 esi, esi
  00097	74 34		 je	 SHORT $LN25@CreateInst
; Line 56
  00099	8b 06		 mov	 eax, DWORD PTR [esi]
  0009b	57		 push	 edi
  0009c	ff 75 10	 push	 DWORD PTR _refiid$[ebp]
  0009f	56		 push	 esi
  000a0	ff 10		 call	 DWORD PTR [eax]
  000a2	8b f8		 mov	 edi, eax
; Line 57
  000a4	85 ff		 test	 edi, edi
  000a6	79 10		 jns	 SHORT $LN24@CreateInst
  000a8	8b ce		 mov	 ecx, esi
  000aa	e8 00 00 00 00	 call	 ??1Co4DyuchiNET@@QAE@XZ	; Co4DyuchiNET::~Co4DyuchiNET
  000af	56		 push	 esi
  000b0	e8 00 00 00 00	 call	 ??3@YAXPAX@Z		; operator delete
  000b5	83 c4 04	 add	 esp, 4
$LN24@CreateInst:
; Line 64
  000b8	8b c7		 mov	 eax, edi
; Line 65
  000ba	8b 4d f4	 mov	 ecx, DWORD PTR __$EHRec$[ebp]
  000bd	64 89 0d 00 00
	00 00		 mov	 DWORD PTR fs:0, ecx
  000c4	59		 pop	 ecx
  000c5	5f		 pop	 edi
  000c6	5e		 pop	 esi
  000c7	8b e5		 mov	 esp, ebp
  000c9	5d		 pop	 ebp
  000ca	c2 10 00	 ret	 16			; 00000010H
$LN25@CreateInst:
; Line 64
  000cd	b8 0e 00 07 80	 mov	 eax, -2147024882	; 8007000eH
; Line 65
  000d2	8b 4d f4	 mov	 ecx, DWORD PTR __$EHRec$[ebp]
  000d5	64 89 0d 00 00
	00 00		 mov	 DWORD PTR fs:0, ecx
  000dc	59		 pop	 ecx
  000dd	5f		 pop	 edi
  000de	5e		 pop	 esi
  000df	8b e5		 mov	 esp, ebp
  000e1	5d		 pop	 ebp
  000e2	c2 10 00	 ret	 16			; 00000010H
_TEXT	ENDS
;	COMDAT text$x
text$x	SEGMENT
__unwindfunclet$?CreateInstance@CF4DyuchiNET@@UAGJPAUIUnknown@@ABU_GUID@@PAPAX@Z$0:
  00000	8b 45 14	 mov	 eax, DWORD PTR $T2[ebp]
  00003	50		 push	 eax
  00004	e8 00 00 00 00	 call	 ??3@YAXPAX@Z		; operator delete
  00009	59		 pop	 ecx
  0000a	c3		 ret	 0
__ehhandler$?CreateInstance@CF4DyuchiNET@@UAGJPAUIUnknown@@ABU_GUID@@PAPAX@Z:
  0000b	8b 54 24 08	 mov	 edx, DWORD PTR [esp+8]
  0000f	8d 42 0c	 lea	 eax, DWORD PTR [edx+12]
  00012	8b 4a f4	 mov	 ecx, DWORD PTR [edx-12]
  00015	33 c8		 xor	 ecx, eax
  00017	e8 00 00 00 00	 call	 @__security_check_cookie@4
  0001c	b8 00 00 00 00	 mov	 eax, OFFSET __ehfuncinfo$?CreateInstance@CF4DyuchiNET@@UAGJPAUIUnknown@@ABU_GUID@@PAPAX@Z
  00021	e9 00 00 00 00	 jmp	 ___CxxFrameHandler3
text$x	ENDS
?CreateInstance@CF4DyuchiNET@@UAGJPAUIUnknown@@ABU_GUID@@PAPAX@Z ENDP ; CF4DyuchiNET::CreateInstance
; Function compile flags: /Ogtp
;	COMDAT ?Release@CF4DyuchiNET@@UAGKXZ
_TEXT	SEGMENT
_this$ = 8						; size = 4
?Release@CF4DyuchiNET@@UAGKXZ PROC			; CF4DyuchiNET::Release, COMDAT
; File e:\github\mso_code\4dyuchinet_latest\factory.cpp
; Line 32
  00000	55		 push	 ebp
  00001	8b ec		 mov	 ebp, esp
; Line 33
  00003	8b 45 08	 mov	 eax, DWORD PTR _this$[ebp]
  00006	ff 48 04	 dec	 DWORD PTR [eax+4]
; Line 34
  00009	75 0f		 jne	 SHORT $LN11@Release
  0000b	50		 push	 eax
; Line 71
  0000c	c7 00 00 00 00
	00		 mov	 DWORD PTR [eax], OFFSET ??_7CF4DyuchiNET@@6B@
  00012	e8 00 00 00 00	 call	 ??3@YAXPAX@Z		; operator delete
  00017	83 c4 04	 add	 esp, 4
$LN11@Release:
; Line 38
  0001a	33 c0		 xor	 eax, eax
; Line 39
  0001c	5d		 pop	 ebp
  0001d	c2 04 00	 ret	 4
?Release@CF4DyuchiNET@@UAGKXZ ENDP			; CF4DyuchiNET::Release
_TEXT	ENDS
; Function compile flags: /Ogtp
;	COMDAT ?AddRef@CF4DyuchiNET@@UAGKXZ
_TEXT	SEGMENT
_this$ = 8						; size = 4
?AddRef@CF4DyuchiNET@@UAGKXZ PROC			; CF4DyuchiNET::AddRef, COMDAT
; File e:\github\mso_code\4dyuchinet_latest\factory.cpp
; Line 26
  00000	55		 push	 ebp
  00001	8b ec		 mov	 ebp, esp
; Line 27
  00003	8b 45 08	 mov	 eax, DWORD PTR _this$[ebp]
  00006	ff 40 04	 inc	 DWORD PTR [eax+4]
; Line 28
  00009	8b 40 04	 mov	 eax, DWORD PTR [eax+4]
; Line 29
  0000c	5d		 pop	 ebp
  0000d	c2 04 00	 ret	 4
?AddRef@CF4DyuchiNET@@UAGKXZ ENDP			; CF4DyuchiNET::AddRef
_TEXT	ENDS
; Function compile flags: /Ogtp
;	COMDAT ?QueryInterface@CF4DyuchiNET@@UAGJABU_GUID@@PAPAX@Z
_TEXT	SEGMENT
_this$ = 8						; size = 4
_refiid$ = 12						; size = 4
_ppv$ = 16						; size = 4
?QueryInterface@CF4DyuchiNET@@UAGJABU_GUID@@PAPAX@Z PROC ; CF4DyuchiNET::QueryInterface, COMDAT
; File e:\github\mso_code\4dyuchinet_latest\factory.cpp
; Line 13
  00000	55		 push	 ebp
  00001	8b ec		 mov	 ebp, esp
; File c:\program files (x86)\windows kits\8.1\include\shared\guiddef.h
; Line 161
  00003	8b 4d 0c	 mov	 ecx, DWORD PTR _refiid$[ebp]
  00006	ba 00 00 00 00	 mov	 edx, OFFSET _IID_IUnknown
  0000b	56		 push	 esi
  0000c	57		 push	 edi
  0000d	8b f1		 mov	 esi, ecx
  0000f	bf 0c 00 00 00	 mov	 edi, 12			; 0000000cH
$LL15@QueryInter:
  00014	8b 02		 mov	 eax, DWORD PTR [edx]
  00016	3b 06		 cmp	 eax, DWORD PTR [esi]
  00018	75 0d		 jne	 SHORT $LN14@QueryInter
  0001a	83 c2 04	 add	 edx, 4
  0001d	83 c6 04	 add	 esi, 4
  00020	83 ef 04	 sub	 edi, 4
  00023	73 ef		 jae	 SHORT $LL15@QueryInter
  00025	eb 1b		 jmp	 SHORT $LN1@QueryInter
$LN14@QueryInter:
  00027	ba 00 00 00 00	 mov	 edx, OFFSET _IID_IClassFactory
  0002c	be 0c 00 00 00	 mov	 esi, 12			; 0000000cH
$LL18@QueryInter:
  00031	8b 02		 mov	 eax, DWORD PTR [edx]
  00033	3b 01		 cmp	 eax, DWORD PTR [ecx]
  00035	75 21		 jne	 SHORT $LN17@QueryInter
  00037	83 c2 04	 add	 edx, 4
  0003a	83 c1 04	 add	 ecx, 4
  0003d	83 ee 04	 sub	 esi, 4
  00040	73 ef		 jae	 SHORT $LL18@QueryInter
$LN1@QueryInter:
; File e:\github\mso_code\4dyuchinet_latest\factory.cpp
; Line 16
  00042	8b 4d 08	 mov	 ecx, DWORD PTR _this$[ebp]
  00045	8b 45 10	 mov	 eax, DWORD PTR _ppv$[ebp]
; Line 17
  00048	51		 push	 ecx
  00049	89 08		 mov	 DWORD PTR [eax], ecx
  0004b	8b 01		 mov	 eax, DWORD PTR [ecx]
  0004d	ff 50 04	 call	 DWORD PTR [eax+4]
  00050	5f		 pop	 edi
; Line 18
  00051	33 c0		 xor	 eax, eax
  00053	5e		 pop	 esi
; Line 23
  00054	5d		 pop	 ebp
  00055	c2 0c 00	 ret	 12			; 0000000cH
$LN17@QueryInter:
; Line 21
  00058	8b 45 10	 mov	 eax, DWORD PTR _ppv$[ebp]
  0005b	5f		 pop	 edi
  0005c	5e		 pop	 esi
  0005d	c7 00 00 00 00
	00		 mov	 DWORD PTR [eax], 0
; Line 22
  00063	b8 02 40 00 80	 mov	 eax, -2147467262	; 80004002H
; Line 23
  00068	5d		 pop	 ebp
  00069	c2 0c 00	 ret	 12			; 0000000cH
?QueryInterface@CF4DyuchiNET@@UAGJABU_GUID@@PAPAX@Z ENDP ; CF4DyuchiNET::QueryInterface
_TEXT	ENDS
; Function compile flags: /Ogtp
;	COMDAT ??0IClassFactory@@QAE@XZ
_TEXT	SEGMENT
??0IClassFactory@@QAE@XZ PROC				; IClassFactory::IClassFactory, COMDAT
; _this$ = ecx
  00000	8b c1		 mov	 eax, ecx
  00002	c3		 ret	 0
??0IClassFactory@@QAE@XZ ENDP				; IClassFactory::IClassFactory
_TEXT	ENDS
; Function compile flags: /Ogtp
;	COMDAT ??0IUnknown@@QAE@XZ
_TEXT	SEGMENT
??0IUnknown@@QAE@XZ PROC				; IUnknown::IUnknown, COMDAT
; _this$ = ecx
  00000	8b c1		 mov	 eax, ecx
  00002	c3		 ret	 0
??0IUnknown@@QAE@XZ ENDP				; IUnknown::IUnknown
_TEXT	ENDS
; Function compile flags: /Ogtp
;	COMDAT _!=
_TEXT	SEGMENT
tv68 = -4						; size = 4
_guidOne$ = 8						; size = 4
_guidOther$ = 12					; size = 4
_!=	PROC						; COMDAT
; File c:\program files (x86)\windows kits\8.1\include\shared\guiddef.h
; Line 198
  00000	55		 push	 ebp
  00001	8b ec		 mov	 ebp, esp
  00003	51		 push	 ecx
; Line 161
  00004	8b 55 08	 mov	 edx, DWORD PTR _guidOne$[ebp]
  00007	8b 45 0c	 mov	 eax, DWORD PTR _guidOther$[ebp]
  0000a	56		 push	 esi
  0000b	be 0c 00 00 00	 mov	 esi, 12			; 0000000cH
$LL9@:
  00010	8b 0a		 mov	 ecx, DWORD PTR [edx]
  00012	3b 08		 cmp	 ecx, DWORD PTR [eax]
  00014	75 1a		 jne	 SHORT $LN8@
  00016	83 c2 04	 add	 edx, 4
  00019	83 c0 04	 add	 eax, 4
  0001c	83 ee 04	 sub	 esi, 4
  0001f	73 ef		 jae	 SHORT $LL9@
  00021	c7 45 fc 00 00
	00 00		 mov	 DWORD PTR tv68[ebp], 0
; Line 199
  00028	8a 45 fc	 mov	 al, BYTE PTR tv68[ebp]
  0002b	5e		 pop	 esi
; Line 200
  0002c	8b e5		 mov	 esp, ebp
  0002e	5d		 pop	 ebp
  0002f	c3		 ret	 0
$LN8@:
; Line 161
  00030	c7 45 fc 01 00
	00 00		 mov	 DWORD PTR tv68[ebp], 1
; Line 199
  00037	8a 45 fc	 mov	 al, BYTE PTR tv68[ebp]
  0003a	5e		 pop	 esi
; Line 200
  0003b	8b e5		 mov	 esp, ebp
  0003d	5d		 pop	 ebp
  0003e	c3		 ret	 0
_!=	ENDP
_TEXT	ENDS
; Function compile flags: /Ogtp
;	COMDAT _==
_TEXT	SEGMENT
tv79 = -4						; size = 4
_guidOne$ = 8						; size = 4
_guidOther$ = 12					; size = 4
_==	PROC						; COMDAT
; File c:\program files (x86)\windows kits\8.1\include\shared\guiddef.h
; Line 193
  00000	55		 push	 ebp
  00001	8b ec		 mov	 ebp, esp
  00003	51		 push	 ecx
; Line 161
  00004	8b 55 08	 mov	 edx, DWORD PTR _guidOne$[ebp]
  00007	8b 45 0c	 mov	 eax, DWORD PTR _guidOther$[ebp]
  0000a	56		 push	 esi
  0000b	be 0c 00 00 00	 mov	 esi, 12			; 0000000cH
$LL7@:
  00010	8b 0a		 mov	 ecx, DWORD PTR [edx]
  00012	3b 08		 cmp	 ecx, DWORD PTR [eax]
  00014	75 1a		 jne	 SHORT $LN6@
  00016	83 c2 04	 add	 edx, 4
  00019	83 c0 04	 add	 eax, 4
  0001c	83 ee 04	 sub	 esi, 4
  0001f	73 ef		 jae	 SHORT $LL7@
  00021	c7 45 fc 01 00
	00 00		 mov	 DWORD PTR tv79[ebp], 1
; Line 194
  00028	8a 45 fc	 mov	 al, BYTE PTR tv79[ebp]
  0002b	5e		 pop	 esi
; Line 195
  0002c	8b e5		 mov	 esp, ebp
  0002e	5d		 pop	 ebp
  0002f	c3		 ret	 0
$LN6@:
; Line 161
  00030	c7 45 fc 00 00
	00 00		 mov	 DWORD PTR tv79[ebp], 0
; Line 194
  00037	8a 45 fc	 mov	 al, BYTE PTR tv79[ebp]
  0003a	5e		 pop	 esi
; Line 195
  0003b	8b e5		 mov	 esp, ebp
  0003d	5d		 pop	 ebp
  0003e	c3		 ret	 0
_==	ENDP
_TEXT	ENDS
; Function compile flags: /Ogtp
;	COMDAT _IsEqualGUID
_TEXT	SEGMENT
_rguid1$ = 8						; size = 4
_rguid2$ = 12						; size = 4
_IsEqualGUID PROC					; COMDAT
; File c:\program files (x86)\windows kits\8.1\include\shared\guiddef.h
; Line 160
  00000	55		 push	 ebp
  00001	8b ec		 mov	 ebp, esp
; Line 161
  00003	8b 55 08	 mov	 edx, DWORD PTR _rguid1$[ebp]
  00006	8b 45 0c	 mov	 eax, DWORD PTR _rguid2$[ebp]
  00009	56		 push	 esi
  0000a	be 0c 00 00 00	 mov	 esi, 12			; 0000000cH
  0000f	90		 npad	 1
$LL5@IsEqualGUI:
  00010	8b 0a		 mov	 ecx, DWORD PTR [edx]
  00012	3b 08		 cmp	 ecx, DWORD PTR [eax]
  00014	75 13		 jne	 SHORT $LN4@IsEqualGUI
  00016	83 c2 04	 add	 edx, 4
  00019	83 c0 04	 add	 eax, 4
  0001c	83 ee 04	 sub	 esi, 4
  0001f	73 ef		 jae	 SHORT $LL5@IsEqualGUI
  00021	b8 01 00 00 00	 mov	 eax, 1
  00026	5e		 pop	 esi
; Line 162
  00027	5d		 pop	 ebp
  00028	c3		 ret	 0
$LN4@IsEqualGUI:
; Line 161
  00029	33 c0		 xor	 eax, eax
  0002b	5e		 pop	 esi
; Line 162
  0002c	5d		 pop	 ebp
  0002d	c3		 ret	 0
_IsEqualGUID ENDP
_TEXT	ENDS
END
