; Listing generated by Microsoft (R) Optimizing Compiler Version 18.00.30501.0 

	TITLE	E:\GitHub\Mso_Code\4DyuchiNET_Latest\mainthread.cpp
	.686P
	.XMM
	include listing.inc
	.model	flat

INCLUDELIB LIBCMT
INCLUDELIB OLDNAMES

PUBLIC	?g_pOnInitialFunc@@3P6GKPAX@ZA			; g_pOnInitialFunc
PUBLIC	?g_hMainThreadEvent@@3PAPAXA			; g_hMainThreadEvent
PUBLIC	?g_hMainThread@@3PAXA				; g_hMainThread
PUBLIC	?g_dwMainThreadEventNum@@3KA			; g_dwMainThreadEventNum
PUBLIC	?g_hCheckBreakEvent@@3PAXA			; g_hCheckBreakEvent
PUBLIC	?pEventFunc@@3PAP6GXK@ZA			; pEventFunc
PUBLIC	?g_dwUserEventNum@@3KA				; g_dwUserEventNum
PUBLIC	?g_userEventDescList@@3PAUEVENT_DESC@@A		; g_userEventDescList
_BSS	SEGMENT
?g_pOnInitialFunc@@3P6GKPAX@ZA DD 01H DUP (?)		; g_pOnInitialFunc
?g_hMainThreadEvent@@3PAPAXA DD 040H DUP (?)		; g_hMainThreadEvent
?g_hMainThread@@3PAXA DD 01H DUP (?)			; g_hMainThread
?g_hCheckBreakEvent@@3PAXA DD 01H DUP (?)		; g_hCheckBreakEvent
?pEventFunc@@3PAP6GXK@ZA DD 03bH DUP (?)		; pEventFunc
?g_dwUserEventNum@@3KA DD 01H DUP (?)			; g_dwUserEventNum
	ALIGN	8

?g_userEventDescList@@3PAUEVENT_DESC@@A DQ 03bH DUP (?)	; g_userEventDescList
_BSS	ENDS
_DATA	SEGMENT
?g_dwMainThreadEventNum@@3KA DD 05H			; g_dwMainThreadEventNum
_DATA	ENDS
PUBLIC	?StartMainThread@@YAHK@Z			; StartMainThread
PUBLIC	?EndMainThread@@YAXXZ				; EndMainThread
PUBLIC	?GetMainThreadMsgEvent@@YAPAXXZ			; GetMainThreadMsgEvent
PUBLIC	?GetMainThreadUserDefineEvent@@YAPAXK@Z		; GetMainThreadUserDefineEvent
PUBLIC	?SetMainThreadUserDefineEventFunc@@YAXKP6GXK@Z@Z ; SetMainThreadUserDefineEventFunc
PUBLIC	?SetMainThreadUserDefineEventNum@@YAXK@Z	; SetMainThreadUserDefineEventNum
PUBLIC	?BreakMainThread@@YAXXZ				; BreakMainThread
PUBLIC	?ResumeMainThread@@YAXXZ			; ResumeMainThread
PUBLIC	?ProcessPreConnectedItem@@YAXXZ			; ProcessPreConnectedItem
PUBLIC	?SetOnInitialFunc@@YAXP6GKPAX@Z@Z		; SetOnInitialFunc
PUBLIC	?GetMsgLength@MSG_CONTAINER@@QAEKXZ		; MSG_CONTAINER::GetMsgLength
PUBLIC	?GetMsg@MSG_CONTAINER@@QAEPADXZ			; MSG_CONTAINER::GetMsg
PUBLIC	?GetActionType@MSG_CONTAINER@@QAE?AW4ACTION_TYPE@@XZ ; MSG_CONTAINER::GetActionType
PUBLIC	?GetConnectionIndex@MSG_CONTAINER@@QAEKXZ	; MSG_CONTAINER::GetConnectionIndex
PUBLIC	?GetActorType@MSG_CONTAINER@@QAE?AW4ACTOR_TYPE@@XZ ; MSG_CONTAINER::GetActorType
PUBLIC	?GetMsgNum@CMsgQue@@QAEKXZ			; CMsgQue::GetMsgNum
PUBLIC	?Clear@CMsgQue@@QAEXXZ				; CMsgQue::Clear
PUBLIC	?OnDisconnect@CNetwork@@QAEXK@Z			; CNetwork::OnDisconnect
PUBLIC	?OnRecvTCP@CNetwork@@QAEXKPADK@Z		; CNetwork::OnRecvTCP
PUBLIC	?GetReadableQue@CQueManager@@QAEPAVCMsgQue@@XZ	; CQueManager::GetReadableQue
PUBLIC	?ProcessMsgThread@@YGIPAX@Z			; ProcessMsgThread
PUBLIC	??_C@_05NAOIJFC@Error?$AA@			; `string'
PUBLIC	??_C@_0BK@MLIPIAE@Fail?5to?5Create?5MainThread?$AA@ ; `string'
PUBLIC	??_C@_0BL@GMKAJDBD@Fail?5WaitForMultipleObject?$AA@ ; `string'
EXTRN	__imp__CloseHandle@4:PROC
EXTRN	__imp__SetEvent@4:PROC
EXTRN	__imp__WaitForSingleObject@8:PROC
EXTRN	__imp__CreateEventA@16:PROC
EXTRN	__imp__WaitForMultipleObjects@16:PROC
EXTRN	__imp__GetActiveWindow@0:PROC
EXTRN	__imp__MessageBoxA@16:PROC
EXTRN	?GetMsgContainer@@YAPAUMSG_CONTAINER@@PAVCMsgQue@@@Z:PROC ; GetMsgContainer
EXTRN	?GetConnection@CNetwork@@QAEXPAPAVCConnection@@K@Z:PROC ; CNetwork::GetConnection
EXTRN	?CloseConnection@CNetwork@@QAEXK@Z:PROC		; CNetwork::CloseConnection
EXTRN	__beginthreadex:PROC
EXTRN	__endthreadex:PROC
EXTRN	?ProcessPreConnect@CPreConnectPool@@QAEHXZ:PROC	; CPreConnectPool::ProcessPreConnect
EXTRN	_memcpy:PROC
EXTRN	_memset:PROC
EXTRN	?g_pNetworkForUser@@3PAVCNetwork@@A:DWORD	; g_pNetworkForUser
EXTRN	?g_pNetworkForServer@@3PAVCNetwork@@A:DWORD	; g_pNetworkForServer
EXTRN	?g_pQueManager@@3PAVCQueManager@@A:DWORD	; g_pQueManager
EXTRN	?g_hProcessComplete@@3PAXA:DWORD		; g_hProcessComplete
EXTRN	?g_pPreConnectPool@@3PAVCPreConnectPool@@A:DWORD ; g_pPreConnectPool
;	COMDAT ??_C@_0BL@GMKAJDBD@Fail?5WaitForMultipleObject?$AA@
CONST	SEGMENT
??_C@_0BL@GMKAJDBD@Fail?5WaitForMultipleObject?$AA@ DB 'Fail WaitForMulti'
	DB	'pleObject', 00H				; `string'
CONST	ENDS
;	COMDAT ??_C@_0BK@MLIPIAE@Fail?5to?5Create?5MainThread?$AA@
CONST	SEGMENT
??_C@_0BK@MLIPIAE@Fail?5to?5Create?5MainThread?$AA@ DB 'Fail to Create Ma'
	DB	'inThread', 00H				; `string'
CONST	ENDS
;	COMDAT ??_C@_05NAOIJFC@Error?$AA@
CONST	SEGMENT
??_C@_05NAOIJFC@Error?$AA@ DB 'Error', 00H		; `string'
CONST	ENDS
; Function compile flags: /Ogtp
;	COMDAT ?ProcessMsgThread@@YGIPAX@Z
_TEXT	SEGMENT
_con$ = -4						; size = 4
_lpVoid$ = 8						; size = 4
?ProcessMsgThread@@YGIPAX@Z PROC			; ProcessMsgThread, COMDAT
; File e:\github\mso_code\4dyuchinet_latest\mainthread.cpp
; Line 173
  00000	55		 push	 ebp
  00001	8b ec		 mov	 ebp, esp
  00003	51		 push	 ecx
; Line 182
  00004	a1 00 00 00 00	 mov	 eax, DWORD PTR ?g_pOnInitialFunc@@3P6GKPAX@ZA ; g_pOnInitialFunc
  00009	c7 45 fc 00 00
	00 00		 mov	 DWORD PTR _con$[ebp], 0
  00010	85 c0		 test	 eax, eax
  00012	74 04		 je	 SHORT $LN121@ProcessMsg
; Line 183
  00014	6a 00		 push	 0
  00016	ff d0		 call	 eax
$LN121@ProcessMsg:
  00018	53		 push	 ebx
  00019	56		 push	 esi
  0001a	57		 push	 edi
  0001b	eb 03 8d 49 00	 npad	 5
$LL129@ProcessMsg:
  00020	8b 1d 00 00 00
	00		 mov	 ebx, DWORD PTR __imp__SetEvent@4
$LL29@ProcessMsg:
; Line 193
  00026	6a ff		 push	 -1
  00028	6a 00		 push	 0
  0002a	68 00 00 00 00	 push	 OFFSET ?g_hMainThreadEvent@@3PAPAXA ; g_hMainThreadEvent
  0002f	ff 35 00 00 00
	00		 push	 DWORD PTR ?g_dwMainThreadEventNum@@3KA ; g_dwMainThreadEventNum
  00035	ff 15 00 00 00
	00		 call	 DWORD PTR __imp__WaitForMultipleObjects@16
  0003b	8b f8		 mov	 edi, eax
  0003d	83 ff ff	 cmp	 edi, -1
  00040	75 1b		 jne	 SHORT $LN27@ProcessMsg
; Line 196
  00042	6a 00		 push	 0
  00044	68 00 00 00 00	 push	 OFFSET ??_C@_05NAOIJFC@Error?$AA@
  00049	68 00 00 00 00	 push	 OFFSET ??_C@_0BL@GMKAJDBD@Fail?5WaitForMultipleObject?$AA@
  0004e	ff 15 00 00 00
	00		 call	 DWORD PTR __imp__GetActiveWindow@0
  00054	50		 push	 eax
  00055	ff 15 00 00 00
	00		 call	 DWORD PTR __imp__MessageBoxA@16
; Line 199
  0005b	eb 3d		 jmp	 SHORT $LN111@ProcessMsg
$LN27@ProcessMsg:
  0005d	83 ff 01	 cmp	 edi, 1
  00060	0f 84 2e 02 00
	00		 je	 $seg_destroy$135
; Line 203
  00066	83 ff 02	 cmp	 edi, 2
  00069	75 18		 jne	 SHORT $LN24@ProcessMsg
; Line 206
  0006b	ff 35 00 00 00
	00		 push	 DWORD PTR ?g_hCheckBreakEvent@@3PAXA ; g_hCheckBreakEvent
  00071	ff d3		 call	 ebx
; Line 207
  00073	6a ff		 push	 -1
  00075	ff 35 0c 00 00
	00		 push	 DWORD PTR ?g_hMainThreadEvent@@3PAPAXA+12
  0007b	ff 15 00 00 00
	00		 call	 DWORD PTR __imp__WaitForSingleObject@8
; Line 208
  00081	eb a3		 jmp	 SHORT $LL29@ProcessMsg
$LN24@ProcessMsg:
; Line 210
  00083	83 ff 04	 cmp	 edi, 4
  00086	75 0d		 jne	 SHORT $LN23@ProcessMsg
; Line 212
  00088	8b 0d 00 00 00
	00		 mov	 ecx, DWORD PTR ?g_pPreConnectPool@@3PAVCPreConnectPool@@A ; g_pPreConnectPool
  0008e	e8 00 00 00 00	 call	 ?ProcessPreConnect@CPreConnectPool@@QAEHXZ ; CPreConnectPool::ProcessPreConnect
; Line 213
  00093	eb 91		 jmp	 SHORT $LL29@ProcessMsg
$LN23@ProcessMsg:
; Line 217
  00095	83 ff 05	 cmp	 edi, 5
  00098	72 79		 jb	 SHORT $LN22@ProcessMsg
$LN111@ProcessMsg:
; Line 225
  0009a	8b 0d 00 00 00
	00		 mov	 ecx, DWORD PTR ?g_dwUserEventNum@@3KA ; g_dwUserEventNum
  000a0	33 c0		 xor	 eax, eax
  000a2	85 c9		 test	 ecx, ecx
  000a4	74 80		 je	 SHORT $LL29@ProcessMsg
; Line 228
  000a6	8b 14 bd 00 00
	00 00		 mov	 edx, DWORD PTR ?g_hMainThreadEvent@@3PAPAXA[edi*4]
  000ad	8d 34 bd 00 00
	00 00		 lea	 esi, DWORD PTR ?g_hMainThreadEvent@@3PAPAXA[edi*4]
$LL21@ProcessMsg:
  000b4	39 14 c5 04 00
	00 00		 cmp	 DWORD PTR ?g_userEventDescList@@3PAUEVENT_DESC@@A[eax*8+4], edx
  000bb	74 0a		 je	 SHORT $LN94@ProcessMsg
; Line 225
  000bd	40		 inc	 eax
  000be	3b c1		 cmp	 eax, ecx
  000c0	72 f2		 jb	 SHORT $LL21@ProcessMsg
; Line 199
  000c2	e9 5f ff ff ff	 jmp	 $LL29@ProcessMsg
$LN94@ProcessMsg:
; Line 232
  000c7	8b 04 c5 00 00
	00 00		 mov	 eax, DWORD PTR ?g_userEventDescList@@3PAUEVENT_DESC@@A[eax*8]
; Line 234
  000ce	50		 push	 eax
  000cf	8b 04 85 00 00
	00 00		 mov	 eax, DWORD PTR ?pEventFunc@@3PAP6GXK@ZA[eax*4]
  000d6	ff d0		 call	 eax
; Line 238
  000d8	8b 1d 00 00 00
	00		 mov	 ebx, DWORD PTR ?g_dwMainThreadEventNum@@3KA ; g_dwMainThreadEventNum
  000de	8b c3		 mov	 eax, ebx
  000e0	2b c7		 sub	 eax, edi
  000e2	48		 dec	 eax
; Line 240
  000e3	0f 84 37 ff ff
	ff		 je	 $LL129@ProcessMsg
; Line 243
  000e9	8b 36		 mov	 esi, DWORD PTR [esi]
; Line 244
  000eb	c1 e0 02	 shl	 eax, 2
  000ee	50		 push	 eax
  000ef	8d 04 bd 04 00
	00 00		 lea	 eax, DWORD PTR ?g_hMainThreadEvent@@3PAPAXA[edi*4+4]
  000f6	50		 push	 eax
  000f7	8d 04 bd 00 00
	00 00		 lea	 eax, DWORD PTR ?g_hMainThreadEvent@@3PAPAXA[edi*4]
  000fe	50		 push	 eax
  000ff	e8 00 00 00 00	 call	 _memcpy
  00104	83 c4 0c	 add	 esp, 12			; 0000000cH
; Line 245
  00107	89 34 9d fc ff
	ff ff		 mov	 DWORD PTR ?g_hMainThreadEvent@@3PAPAXA[ebx*4-4], esi
; Line 253
  0010e	e9 0d ff ff ff	 jmp	 $LL129@ProcessMsg
$LN22@ProcessMsg:
; File e:\github\mso_code\4dyuchinet_latest\quemanager.h
; Line 20
  00113	a1 00 00 00 00	 mov	 eax, DWORD PTR ?g_pQueManager@@3PAVCQueManager@@A ; g_pQueManager
; File e:\github\mso_code\4dyuchinet_latest\mainthread.cpp
; Line 260
  00118	33 ff		 xor	 edi, edi
; File e:\github\mso_code\4dyuchinet_latest\quemanager.h
; Line 20
  0011a	8b 58 04	 mov	 ebx, DWORD PTR [eax+4]
; File e:\github\mso_code\4dyuchinet_latest\mainthread.cpp
; Line 260
  0011d	39 3b		 cmp	 DWORD PTR [ebx], edi
  0011f	0f 86 48 01 00
	00		 jbe	 $LN14@ProcessMsg
$LL16@ProcessMsg:
; Line 263
  00125	53		 push	 ebx
  00126	e8 00 00 00 00	 call	 ?GetMsgContainer@@YAPAUMSG_CONTAINER@@PAVCMsgQue@@@Z ; GetMsgContainer
  0012b	8b f0		 mov	 esi, eax
  0012d	83 c4 04	 add	 esp, 4
; File e:\github\mso_code\4dyuchinet_latest\que.h
; Line 48
  00130	8b 0e		 mov	 ecx, DWORD PTR [esi]
  00132	8b c1		 mov	 eax, ecx
  00134	25 00 00 00 70	 and	 eax, 1879048192		; 70000000H
; File e:\github\mso_code\4dyuchinet_latest\mainthread.cpp
; Line 264
  00139	3d 00 00 00 20	 cmp	 eax, 536870912		; 20000000H
  0013e	0f 85 a5 00 00
	00		 jne	 $LN13@ProcessMsg
; File e:\github\mso_code\4dyuchinet_latest\que.h
; Line 50
  00144	8b c1		 mov	 eax, ecx
  00146	25 00 00 00 80	 and	 eax, -2147483648	; 80000000H
; File e:\github\mso_code\4dyuchinet_latest\mainthread.cpp
; Line 267
  0014b	75 4a		 jne	 SHORT $LN12@ProcessMsg
; File e:\github\mso_code\4dyuchinet_latest\que.h
; Line 49
  0014d	81 e1 ff ff ff
	0f		 and	 ecx, 268435455		; 0fffffffH
; File e:\github\mso_code\4dyuchinet_latest\mainthread.cpp
; Line 271
  00153	8d 45 fc	 lea	 eax, DWORD PTR _con$[ebp]
  00156	51		 push	 ecx
  00157	8b 0d 00 00 00
	00		 mov	 ecx, DWORD PTR ?g_pNetworkForUser@@3PAVCNetwork@@A ; g_pNetworkForUser
  0015d	50		 push	 eax
  0015e	e8 00 00 00 00	 call	 ?GetConnection@CNetwork@@QAEXPAPAVCConnection@@K@Z ; CNetwork::GetConnection
; Line 272
  00163	83 7d fc 00	 cmp	 DWORD PTR _con$[ebp], 0
  00167	0f 84 f7 00 00
	00		 je	 $LN15@ProcessMsg
; File e:\github\mso_code\4dyuchinet_latest\que.h
; Line 49
  0016d	8b 06		 mov	 eax, DWORD PTR [esi]
  0016f	25 ff ff ff 0f	 and	 eax, 268435455		; 0fffffffH
; File e:\github\mso_code\4dyuchinet_latest\network.h
; Line 84
  00174	50		 push	 eax
  00175	a1 00 00 00 00	 mov	 eax, DWORD PTR ?g_pNetworkForUser@@3PAVCNetwork@@A ; g_pNetworkForUser
  0017a	8b 40 5c	 mov	 eax, DWORD PTR [eax+92]
  0017d	ff d0		 call	 eax
; File e:\github\mso_code\4dyuchinet_latest\que.h
; Line 49
  0017f	8b 06		 mov	 eax, DWORD PTR [esi]
; File e:\github\mso_code\4dyuchinet_latest\mainthread.cpp
; Line 275
  00181	8b 0d 00 00 00
	00		 mov	 ecx, DWORD PTR ?g_pNetworkForUser@@3PAVCNetwork@@A ; g_pNetworkForUser
; File e:\github\mso_code\4dyuchinet_latest\que.h
; Line 49
  00187	25 ff ff ff 0f	 and	 eax, 268435455		; 0fffffffH
; File e:\github\mso_code\4dyuchinet_latest\mainthread.cpp
; Line 275
  0018c	50		 push	 eax
  0018d	e8 00 00 00 00	 call	 ?CloseConnection@CNetwork@@QAEXK@Z ; CNetwork::CloseConnection
; Line 278
  00192	e9 cd 00 00 00	 jmp	 $LN15@ProcessMsg
$LN12@ProcessMsg:
  00197	3d 00 00 00 80	 cmp	 eax, -2147483648	; 80000000H
  0019c	0f 85 c2 00 00
	00		 jne	 $LN15@ProcessMsg
; File e:\github\mso_code\4dyuchinet_latest\que.h
; Line 49
  001a2	81 e1 ff ff ff
	0f		 and	 ecx, 268435455		; 0fffffffH
; File e:\github\mso_code\4dyuchinet_latest\mainthread.cpp
; Line 282
  001a8	8d 45 fc	 lea	 eax, DWORD PTR _con$[ebp]
  001ab	51		 push	 ecx
  001ac	8b 0d 00 00 00
	00		 mov	 ecx, DWORD PTR ?g_pNetworkForServer@@3PAVCNetwork@@A ; g_pNetworkForServer
  001b2	50		 push	 eax
  001b3	e8 00 00 00 00	 call	 ?GetConnection@CNetwork@@QAEXPAPAVCConnection@@K@Z ; CNetwork::GetConnection
; Line 283
  001b8	83 7d fc 00	 cmp	 DWORD PTR _con$[ebp], 0
  001bc	0f 84 a2 00 00
	00		 je	 $LN15@ProcessMsg
; File e:\github\mso_code\4dyuchinet_latest\que.h
; Line 49
  001c2	8b 06		 mov	 eax, DWORD PTR [esi]
  001c4	25 ff ff ff 0f	 and	 eax, 268435455		; 0fffffffH
; File e:\github\mso_code\4dyuchinet_latest\network.h
; Line 84
  001c9	50		 push	 eax
  001ca	a1 00 00 00 00	 mov	 eax, DWORD PTR ?g_pNetworkForServer@@3PAVCNetwork@@A ; g_pNetworkForServer
  001cf	8b 40 5c	 mov	 eax, DWORD PTR [eax+92]
  001d2	ff d0		 call	 eax
; File e:\github\mso_code\4dyuchinet_latest\que.h
; Line 49
  001d4	8b 06		 mov	 eax, DWORD PTR [esi]
; File e:\github\mso_code\4dyuchinet_latest\mainthread.cpp
; Line 286
  001d6	8b 0d 00 00 00
	00		 mov	 ecx, DWORD PTR ?g_pNetworkForServer@@3PAVCNetwork@@A ; g_pNetworkForServer
; File e:\github\mso_code\4dyuchinet_latest\que.h
; Line 49
  001dc	25 ff ff ff 0f	 and	 eax, 268435455		; 0fffffffH
; File e:\github\mso_code\4dyuchinet_latest\mainthread.cpp
; Line 286
  001e1	50		 push	 eax
  001e2	e8 00 00 00 00	 call	 ?CloseConnection@CNetwork@@QAEXK@Z ; CNetwork::CloseConnection
; Line 290
  001e7	eb 7b		 jmp	 SHORT $LN15@ProcessMsg
$LN13@ProcessMsg:
  001e9	85 c0		 test	 eax, eax
  001eb	75 77		 jne	 SHORT $LN15@ProcessMsg
; File e:\github\mso_code\4dyuchinet_latest\que.h
; Line 50
  001ed	8b c1		 mov	 eax, ecx
  001ef	25 00 00 00 80	 and	 eax, -2147483648	; 80000000H
; File e:\github\mso_code\4dyuchinet_latest\mainthread.cpp
; Line 293
  001f4	75 32		 jne	 SHORT $LN5@ProcessMsg
; File e:\github\mso_code\4dyuchinet_latest\que.h
; Line 49
  001f6	81 e1 ff ff ff
	0f		 and	 ecx, 268435455		; 0fffffffH
; File e:\github\mso_code\4dyuchinet_latest\mainthread.cpp
; Line 297
  001fc	8d 45 fc	 lea	 eax, DWORD PTR _con$[ebp]
  001ff	51		 push	 ecx
  00200	8b 0d 00 00 00
	00		 mov	 ecx, DWORD PTR ?g_pNetworkForUser@@3PAVCNetwork@@A ; g_pNetworkForUser
  00206	50		 push	 eax
  00207	e8 00 00 00 00	 call	 ?GetConnection@CNetwork@@QAEXPAPAVCConnection@@K@Z ; CNetwork::GetConnection
; Line 298
  0020c	83 7d fc 00	 cmp	 DWORD PTR _con$[ebp], 0
  00210	74 52		 je	 SHORT $LN15@ProcessMsg
; File e:\github\mso_code\4dyuchinet_latest\network.h
; Line 85
  00212	ff 76 08	 push	 DWORD PTR [esi+8]
; File e:\github\mso_code\4dyuchinet_latest\que.h
; Line 42
  00215	8d 46 10	 lea	 eax, DWORD PTR [esi+16]
; File e:\github\mso_code\4dyuchinet_latest\network.h
; Line 85
  00218	50		 push	 eax
; File e:\github\mso_code\4dyuchinet_latest\que.h
; Line 49
  00219	8b 06		 mov	 eax, DWORD PTR [esi]
  0021b	25 ff ff ff 0f	 and	 eax, 268435455		; 0fffffffH
; File e:\github\mso_code\4dyuchinet_latest\network.h
; Line 85
  00220	50		 push	 eax
  00221	a1 00 00 00 00	 mov	 eax, DWORD PTR ?g_pNetworkForUser@@3PAVCNetwork@@A ; g_pNetworkForUser
; File e:\github\mso_code\4dyuchinet_latest\mainthread.cpp
; Line 301
  00226	eb 37		 jmp	 SHORT $LN133@ProcessMsg
$LN5@ProcessMsg:
  00228	3d 00 00 00 80	 cmp	 eax, -2147483648	; 80000000H
  0022d	75 35		 jne	 SHORT $LN15@ProcessMsg
; File e:\github\mso_code\4dyuchinet_latest\que.h
; Line 49
  0022f	81 e1 ff ff ff
	0f		 and	 ecx, 268435455		; 0fffffffH
; File e:\github\mso_code\4dyuchinet_latest\mainthread.cpp
; Line 305
  00235	8d 45 fc	 lea	 eax, DWORD PTR _con$[ebp]
  00238	51		 push	 ecx
  00239	8b 0d 00 00 00
	00		 mov	 ecx, DWORD PTR ?g_pNetworkForServer@@3PAVCNetwork@@A ; g_pNetworkForServer
  0023f	50		 push	 eax
  00240	e8 00 00 00 00	 call	 ?GetConnection@CNetwork@@QAEXPAPAVCConnection@@K@Z ; CNetwork::GetConnection
; Line 306
  00245	83 7d fc 00	 cmp	 DWORD PTR _con$[ebp], 0
  00249	74 19		 je	 SHORT $LN15@ProcessMsg
; File e:\github\mso_code\4dyuchinet_latest\network.h
; Line 85
  0024b	ff 76 08	 push	 DWORD PTR [esi+8]
; File e:\github\mso_code\4dyuchinet_latest\que.h
; Line 42
  0024e	8d 46 10	 lea	 eax, DWORD PTR [esi+16]
; File e:\github\mso_code\4dyuchinet_latest\network.h
; Line 85
  00251	50		 push	 eax
; File e:\github\mso_code\4dyuchinet_latest\que.h
; Line 49
  00252	8b 06		 mov	 eax, DWORD PTR [esi]
  00254	25 ff ff ff 0f	 and	 eax, 268435455		; 0fffffffH
; File e:\github\mso_code\4dyuchinet_latest\network.h
; Line 85
  00259	50		 push	 eax
  0025a	a1 00 00 00 00	 mov	 eax, DWORD PTR ?g_pNetworkForServer@@3PAVCNetwork@@A ; g_pNetworkForServer
$LN133@ProcessMsg:
  0025f	8b 40 60	 mov	 eax, DWORD PTR [eax+96]
  00262	ff d0		 call	 eax
$LN15@ProcessMsg:
; File e:\github\mso_code\4dyuchinet_latest\mainthread.cpp
; Line 260
  00264	47		 inc	 edi
  00265	3b 3b		 cmp	 edi, DWORD PTR [ebx]
  00267	0f 82 b8 fe ff
	ff		 jb	 $LL16@ProcessMsg
$LN14@ProcessMsg:
; File e:\github\mso_code\4dyuchinet_latest\que.h
; Line 96
  0026d	c7 03 00 00 00
	00		 mov	 DWORD PTR [ebx], 0
  00273	c7 43 0c 00 00
	00 00		 mov	 DWORD PTR [ebx+12], 0
  0027a	c7 43 08 00 00
	00 00		 mov	 DWORD PTR [ebx+8], 0
; File e:\github\mso_code\4dyuchinet_latest\mainthread.cpp
; Line 312
  00281	ff 35 00 00 00
	00		 push	 DWORD PTR ?g_hProcessComplete@@3PAXA ; g_hProcessComplete
  00287	8b 1d 00 00 00
	00		 mov	 ebx, DWORD PTR __imp__SetEvent@4
  0028d	ff d3		 call	 ebx
; Line 313
  0028f	e9 92 fd ff ff	 jmp	 $LL29@ProcessMsg
$seg_destroy$135:
; Line 315
  00294	ff 35 00 00 00
	00		 push	 DWORD PTR ?g_hProcessComplete@@3PAXA ; g_hProcessComplete
  0029a	ff d3		 call	 ebx
; Line 316
  0029c	6a 00		 push	 0
  0029e	e8 00 00 00 00	 call	 __endthreadex
  002a3	83 c4 04	 add	 esp, 4
; Line 317
  002a6	33 c0		 xor	 eax, eax
  002a8	5f		 pop	 edi
  002a9	5e		 pop	 esi
  002aa	5b		 pop	 ebx
; Line 318
  002ab	8b e5		 mov	 esp, ebp
  002ad	5d		 pop	 ebp
  002ae	c2 04 00	 ret	 4
?ProcessMsgThread@@YGIPAX@Z ENDP			; ProcessMsgThread
_TEXT	ENDS
; Function compile flags: /Ogtp
;	COMDAT ?GetReadableQue@CQueManager@@QAEPAVCMsgQue@@XZ
_TEXT	SEGMENT
?GetReadableQue@CQueManager@@QAEPAVCMsgQue@@XZ PROC	; CQueManager::GetReadableQue, COMDAT
; _this$ = ecx
; File e:\github\mso_code\4dyuchinet_latest\quemanager.h
; Line 20
  00000	8b 41 04	 mov	 eax, DWORD PTR [ecx+4]
  00003	c3		 ret	 0
?GetReadableQue@CQueManager@@QAEPAVCMsgQue@@XZ ENDP	; CQueManager::GetReadableQue
_TEXT	ENDS
; Function compile flags: /Ogtp
;	COMDAT ?OnRecvTCP@CNetwork@@QAEXKPADK@Z
_TEXT	SEGMENT
_dwConnectionIndex$ = 8					; size = 4
_msg$ = 12						; size = 4
_len$ = 16						; size = 4
?OnRecvTCP@CNetwork@@QAEXKPADK@Z PROC			; CNetwork::OnRecvTCP, COMDAT
; _this$ = ecx
; File e:\github\mso_code\4dyuchinet_latest\network.h
; Line 85
  00000	55		 push	 ebp
  00001	8b ec		 mov	 ebp, esp
  00003	8b 41 60	 mov	 eax, DWORD PTR [ecx+96]
  00006	5d		 pop	 ebp
  00007	ff e0		 jmp	 eax
?OnRecvTCP@CNetwork@@QAEXKPADK@Z ENDP			; CNetwork::OnRecvTCP
_TEXT	ENDS
; Function compile flags: /Ogtp
;	COMDAT ?OnDisconnect@CNetwork@@QAEXK@Z
_TEXT	SEGMENT
_dwConnectionIndex$ = 8					; size = 4
?OnDisconnect@CNetwork@@QAEXK@Z PROC			; CNetwork::OnDisconnect, COMDAT
; _this$ = ecx
; File e:\github\mso_code\4dyuchinet_latest\network.h
; Line 84
  00000	55		 push	 ebp
  00001	8b ec		 mov	 ebp, esp
  00003	8b 41 5c	 mov	 eax, DWORD PTR [ecx+92]
  00006	5d		 pop	 ebp
  00007	ff e0		 jmp	 eax
?OnDisconnect@CNetwork@@QAEXK@Z ENDP			; CNetwork::OnDisconnect
_TEXT	ENDS
; Function compile flags: /Ogtp
;	COMDAT ?Clear@CMsgQue@@QAEXXZ
_TEXT	SEGMENT
?Clear@CMsgQue@@QAEXXZ PROC				; CMsgQue::Clear, COMDAT
; _this$ = ecx
; File e:\github\mso_code\4dyuchinet_latest\que.h
; Line 96
  00000	c7 01 00 00 00
	00		 mov	 DWORD PTR [ecx], 0
  00006	c7 41 0c 00 00
	00 00		 mov	 DWORD PTR [ecx+12], 0
  0000d	c7 41 08 00 00
	00 00		 mov	 DWORD PTR [ecx+8], 0
  00014	c3		 ret	 0
?Clear@CMsgQue@@QAEXXZ ENDP				; CMsgQue::Clear
_TEXT	ENDS
; Function compile flags: /Ogtp
;	COMDAT ?GetMsgNum@CMsgQue@@QAEKXZ
_TEXT	SEGMENT
?GetMsgNum@CMsgQue@@QAEKXZ PROC				; CMsgQue::GetMsgNum, COMDAT
; _this$ = ecx
; File e:\github\mso_code\4dyuchinet_latest\que.h
; Line 85
  00000	8b 01		 mov	 eax, DWORD PTR [ecx]
  00002	c3		 ret	 0
?GetMsgNum@CMsgQue@@QAEKXZ ENDP				; CMsgQue::GetMsgNum
_TEXT	ENDS
; Function compile flags: /Ogtp
;	COMDAT ?GetActorType@MSG_CONTAINER@@QAE?AW4ACTOR_TYPE@@XZ
_TEXT	SEGMENT
?GetActorType@MSG_CONTAINER@@QAE?AW4ACTOR_TYPE@@XZ PROC	; MSG_CONTAINER::GetActorType, COMDAT
; _this$ = ecx
; File e:\github\mso_code\4dyuchinet_latest\que.h
; Line 50
  00000	8b 01		 mov	 eax, DWORD PTR [ecx]
  00002	25 00 00 00 80	 and	 eax, -2147483648	; 80000000H
  00007	c3		 ret	 0
?GetActorType@MSG_CONTAINER@@QAE?AW4ACTOR_TYPE@@XZ ENDP	; MSG_CONTAINER::GetActorType
_TEXT	ENDS
; Function compile flags: /Ogtp
;	COMDAT ?GetConnectionIndex@MSG_CONTAINER@@QAEKXZ
_TEXT	SEGMENT
?GetConnectionIndex@MSG_CONTAINER@@QAEKXZ PROC		; MSG_CONTAINER::GetConnectionIndex, COMDAT
; _this$ = ecx
; File e:\github\mso_code\4dyuchinet_latest\que.h
; Line 49
  00000	8b 01		 mov	 eax, DWORD PTR [ecx]
  00002	25 ff ff ff 0f	 and	 eax, 268435455		; 0fffffffH
  00007	c3		 ret	 0
?GetConnectionIndex@MSG_CONTAINER@@QAEKXZ ENDP		; MSG_CONTAINER::GetConnectionIndex
_TEXT	ENDS
; Function compile flags: /Ogtp
;	COMDAT ?GetActionType@MSG_CONTAINER@@QAE?AW4ACTION_TYPE@@XZ
_TEXT	SEGMENT
?GetActionType@MSG_CONTAINER@@QAE?AW4ACTION_TYPE@@XZ PROC ; MSG_CONTAINER::GetActionType, COMDAT
; _this$ = ecx
; File e:\github\mso_code\4dyuchinet_latest\que.h
; Line 48
  00000	8b 01		 mov	 eax, DWORD PTR [ecx]
  00002	25 00 00 00 70	 and	 eax, 1879048192		; 70000000H
  00007	c3		 ret	 0
?GetActionType@MSG_CONTAINER@@QAE?AW4ACTION_TYPE@@XZ ENDP ; MSG_CONTAINER::GetActionType
_TEXT	ENDS
; Function compile flags: /Ogtp
;	COMDAT ?GetMsg@MSG_CONTAINER@@QAEPADXZ
_TEXT	SEGMENT
?GetMsg@MSG_CONTAINER@@QAEPADXZ PROC			; MSG_CONTAINER::GetMsg, COMDAT
; _this$ = ecx
; File e:\github\mso_code\4dyuchinet_latest\que.h
; Line 42
  00000	8d 41 10	 lea	 eax, DWORD PTR [ecx+16]
  00003	c3		 ret	 0
?GetMsg@MSG_CONTAINER@@QAEPADXZ ENDP			; MSG_CONTAINER::GetMsg
_TEXT	ENDS
; Function compile flags: /Ogtp
;	COMDAT ?GetMsgLength@MSG_CONTAINER@@QAEKXZ
_TEXT	SEGMENT
?GetMsgLength@MSG_CONTAINER@@QAEKXZ PROC		; MSG_CONTAINER::GetMsgLength, COMDAT
; _this$ = ecx
; File e:\github\mso_code\4dyuchinet_latest\que.h
; Line 41
  00000	8b 41 08	 mov	 eax, DWORD PTR [ecx+8]
  00003	c3		 ret	 0
?GetMsgLength@MSG_CONTAINER@@QAEKXZ ENDP		; MSG_CONTAINER::GetMsgLength
_TEXT	ENDS
; Function compile flags: /Ogtp
;	COMDAT ?SetOnInitialFunc@@YAXP6GKPAX@Z@Z
_TEXT	SEGMENT
_pFunc$ = 8						; size = 4
?SetOnInitialFunc@@YAXP6GKPAX@Z@Z PROC			; SetOnInitialFunc, COMDAT
; File e:\github\mso_code\4dyuchinet_latest\mainthread.cpp
; Line 43
  00000	55		 push	 ebp
  00001	8b ec		 mov	 ebp, esp
; Line 44
  00003	8b 45 08	 mov	 eax, DWORD PTR _pFunc$[ebp]
  00006	a3 00 00 00 00	 mov	 DWORD PTR ?g_pOnInitialFunc@@3P6GKPAX@ZA, eax ; g_pOnInitialFunc
; Line 45
  0000b	5d		 pop	 ebp
  0000c	c3		 ret	 0
?SetOnInitialFunc@@YAXP6GKPAX@Z@Z ENDP			; SetOnInitialFunc
_TEXT	ENDS
; Function compile flags: /Ogtp
;	COMDAT ?ProcessPreConnectedItem@@YAXXZ
_TEXT	SEGMENT
?ProcessPreConnectedItem@@YAXXZ PROC			; ProcessPreConnectedItem, COMDAT
; File e:\github\mso_code\4dyuchinet_latest\mainthread.cpp
; Line 96
  00000	ff 35 10 00 00
	00		 push	 DWORD PTR ?g_hMainThreadEvent@@3PAPAXA+16
  00006	ff 15 00 00 00
	00		 call	 DWORD PTR __imp__SetEvent@4
; Line 98
  0000c	c3		 ret	 0
?ProcessPreConnectedItem@@YAXXZ ENDP			; ProcessPreConnectedItem
_TEXT	ENDS
; Function compile flags: /Ogtp
;	COMDAT ?ResumeMainThread@@YAXXZ
_TEXT	SEGMENT
?ResumeMainThread@@YAXXZ PROC				; ResumeMainThread, COMDAT
; File e:\github\mso_code\4dyuchinet_latest\mainthread.cpp
; Line 66
  00000	ff 35 0c 00 00
	00		 push	 DWORD PTR ?g_hMainThreadEvent@@3PAPAXA+12
  00006	ff 15 00 00 00
	00		 call	 DWORD PTR __imp__SetEvent@4
; Line 67
  0000c	c3		 ret	 0
?ResumeMainThread@@YAXXZ ENDP				; ResumeMainThread
_TEXT	ENDS
; Function compile flags: /Ogtp
;	COMDAT ?BreakMainThread@@YAXXZ
_TEXT	SEGMENT
?BreakMainThread@@YAXXZ PROC				; BreakMainThread, COMDAT
; File e:\github\mso_code\4dyuchinet_latest\mainthread.cpp
; Line 59
  00000	ff 35 08 00 00
	00		 push	 DWORD PTR ?g_hMainThreadEvent@@3PAPAXA+8
  00006	ff 15 00 00 00
	00		 call	 DWORD PTR __imp__SetEvent@4
; Line 60
  0000c	6a ff		 push	 -1
  0000e	ff 35 00 00 00
	00		 push	 DWORD PTR ?g_hCheckBreakEvent@@3PAXA ; g_hCheckBreakEvent
  00014	ff 15 00 00 00
	00		 call	 DWORD PTR __imp__WaitForSingleObject@8
; Line 61
  0001a	c3		 ret	 0
?BreakMainThread@@YAXXZ ENDP				; BreakMainThread
_TEXT	ENDS
; Function compile flags: /Ogtp
;	COMDAT ?SetMainThreadUserDefineEventNum@@YAXK@Z
_TEXT	SEGMENT
_num$ = 8						; size = 4
?SetMainThreadUserDefineEventNum@@YAXK@Z PROC		; SetMainThreadUserDefineEventNum, COMDAT
; File e:\github\mso_code\4dyuchinet_latest\mainthread.cpp
; Line 128
  00000	55		 push	 ebp
  00001	8b ec		 mov	 ebp, esp
  00003	56		 push	 esi
  00004	57		 push	 edi
; Line 131
  00005	8b 7d 08	 mov	 edi, DWORD PTR _num$[ebp]
; Line 132
  00008	68 ec 00 00 00	 push	 236			; 000000ecH
  0000d	6a 00		 push	 0
  0000f	68 00 00 00 00	 push	 OFFSET ?pEventFunc@@3PAP6GXK@ZA ; pEventFunc
  00014	8d 47 05	 lea	 eax, DWORD PTR [edi+5]
  00017	a3 00 00 00 00	 mov	 DWORD PTR ?g_dwMainThreadEventNum@@3KA, eax ; g_dwMainThreadEventNum
  0001c	e8 00 00 00 00	 call	 _memset
; Line 134
  00021	68 d8 01 00 00	 push	 472			; 000001d8H
  00026	6a 00		 push	 0
  00028	68 00 00 00 00	 push	 OFFSET ?g_userEventDescList@@3PAUEVENT_DESC@@A ; g_userEventDescList
  0002d	e8 00 00 00 00	 call	 _memset
  00032	83 c4 18	 add	 esp, 24			; 00000018H
; Line 136
  00035	89 3d 00 00 00
	00		 mov	 DWORD PTR ?g_dwUserEventNum@@3KA, edi ; g_dwUserEventNum
; Line 138
  0003b	33 f6		 xor	 esi, esi
  0003d	85 ff		 test	 edi, edi
  0003f	74 2c		 je	 SHORT $LN1@SetMainThr
  00041	53		 push	 ebx
  00042	8b 1d 00 00 00
	00		 mov	 ebx, DWORD PTR __imp__CreateEventA@16
$LL3@SetMainThr:
; Line 140
  00048	6a 00		 push	 0
  0004a	6a 00		 push	 0
  0004c	6a 00		 push	 0
  0004e	6a 00		 push	 0
  00050	ff d3		 call	 ebx
  00052	89 04 b5 14 00
	00 00		 mov	 DWORD PTR ?g_hMainThreadEvent@@3PAPAXA[esi*4+20], eax
; Line 143
  00059	89 34 f5 00 00
	00 00		 mov	 DWORD PTR ?g_userEventDescList@@3PAUEVENT_DESC@@A[esi*8], esi
; Line 144
  00060	89 04 f5 04 00
	00 00		 mov	 DWORD PTR ?g_userEventDescList@@3PAUEVENT_DESC@@A[esi*8+4], eax
  00067	46		 inc	 esi
  00068	3b f7		 cmp	 esi, edi
  0006a	72 dc		 jb	 SHORT $LL3@SetMainThr
  0006c	5b		 pop	 ebx
$LN1@SetMainThr:
  0006d	5f		 pop	 edi
  0006e	5e		 pop	 esi
; Line 148
  0006f	5d		 pop	 ebp
  00070	c3		 ret	 0
?SetMainThreadUserDefineEventNum@@YAXK@Z ENDP		; SetMainThreadUserDefineEventNum
_TEXT	ENDS
; Function compile flags: /Ogtp
;	COMDAT ?SetMainThreadUserDefineEventFunc@@YAXKP6GXK@Z@Z
_TEXT	SEGMENT
_index$ = 8						; size = 4
_pFunc$ = 12						; size = 4
?SetMainThreadUserDefineEventFunc@@YAXKP6GXK@Z@Z PROC	; SetMainThreadUserDefineEventFunc, COMDAT
; File e:\github\mso_code\4dyuchinet_latest\mainthread.cpp
; Line 51
  00000	55		 push	 ebp
  00001	8b ec		 mov	 ebp, esp
; Line 52
  00003	8b 45 08	 mov	 eax, DWORD PTR _index$[ebp]
  00006	8b 4d 0c	 mov	 ecx, DWORD PTR _pFunc$[ebp]
  00009	89 0c 85 00 00
	00 00		 mov	 DWORD PTR ?pEventFunc@@3PAP6GXK@ZA[eax*4], ecx
; Line 53
  00010	5d		 pop	 ebp
  00011	c3		 ret	 0
?SetMainThreadUserDefineEventFunc@@YAXKP6GXK@Z@Z ENDP	; SetMainThreadUserDefineEventFunc
_TEXT	ENDS
; Function compile flags: /Ogtp
;	COMDAT ?GetMainThreadUserDefineEvent@@YAPAXK@Z
_TEXT	SEGMENT
_index$ = 8						; size = 4
?GetMainThreadUserDefineEvent@@YAPAXK@Z PROC		; GetMainThreadUserDefineEvent, COMDAT
; File e:\github\mso_code\4dyuchinet_latest\mainthread.cpp
; Line 77
  00000	55		 push	 ebp
  00001	8b ec		 mov	 ebp, esp
; Line 83
  00003	8b 0d 00 00 00
	00		 mov	 ecx, DWORD PTR ?g_dwUserEventNum@@3KA ; g_dwUserEventNum
  00009	33 c0		 xor	 eax, eax
  0000b	85 c9		 test	 ecx, ecx
  0000d	74 11		 je	 SHORT $LN12@GetMainThr
  0000f	8b 55 08	 mov	 edx, DWORD PTR _index$[ebp]
$LL4@GetMainThr:
; Line 86
  00012	39 14 c5 00 00
	00 00		 cmp	 DWORD PTR ?g_userEventDescList@@3PAUEVENT_DESC@@A[eax*8], edx
  00019	74 09		 je	 SHORT $LN8@GetMainThr
; Line 83
  0001b	40		 inc	 eax
  0001c	3b c1		 cmp	 eax, ecx
  0001e	72 f2		 jb	 SHORT $LL4@GetMainThr
$LN12@GetMainThr:
; Line 92
  00020	33 c0		 xor	 eax, eax
; Line 93
  00022	5d		 pop	 ebp
  00023	c3		 ret	 0
$LN8@GetMainThr:
; Line 92
  00024	8b 04 c5 04 00
	00 00		 mov	 eax, DWORD PTR ?g_userEventDescList@@3PAUEVENT_DESC@@A[eax*8+4]
; Line 93
  0002b	5d		 pop	 ebp
  0002c	c3		 ret	 0
?GetMainThreadUserDefineEvent@@YAPAXK@Z ENDP		; GetMainThreadUserDefineEvent
_TEXT	ENDS
; Function compile flags: /Ogtp
;	COMDAT ?GetMainThreadMsgEvent@@YAPAXXZ
_TEXT	SEGMENT
?GetMainThreadMsgEvent@@YAPAXXZ PROC			; GetMainThreadMsgEvent, COMDAT
; File e:\github\mso_code\4dyuchinet_latest\mainthread.cpp
; Line 71
  00000	a1 00 00 00 00	 mov	 eax, DWORD PTR ?g_hMainThreadEvent@@3PAPAXA
; Line 72
  00005	c3		 ret	 0
?GetMainThreadMsgEvent@@YAPAXXZ ENDP			; GetMainThreadMsgEvent
_TEXT	ENDS
; Function compile flags: /Ogtp
;	COMDAT ?EndMainThread@@YAXXZ
_TEXT	SEGMENT
?EndMainThread@@YAXXZ PROC				; EndMainThread, COMDAT
; File e:\github\mso_code\4dyuchinet_latest\mainthread.cpp
; Line 152
  00000	56		 push	 esi
; Line 66
  00001	8b 35 00 00 00
	00		 mov	 esi, DWORD PTR __imp__SetEvent@4
  00007	57		 push	 edi
  00008	ff 35 0c 00 00
	00		 push	 DWORD PTR ?g_hMainThreadEvent@@3PAPAXA+12
  0000e	ff d6		 call	 esi
; Line 156
  00010	ff 35 04 00 00
	00		 push	 DWORD PTR ?g_hMainThreadEvent@@3PAPAXA+4
  00016	ff d6		 call	 esi
; Line 157
  00018	6a ff		 push	 -1
  0001a	ff 35 00 00 00
	00		 push	 DWORD PTR ?g_hMainThread@@3PAXA ; g_hMainThread
  00020	ff 15 00 00 00
	00		 call	 DWORD PTR __imp__WaitForSingleObject@8
; Line 160
  00026	8b 3d 00 00 00
	00		 mov	 edi, DWORD PTR __imp__CloseHandle@4
  0002c	33 f6		 xor	 esi, esi
  0002e	39 35 00 00 00
	00		 cmp	 DWORD PTR ?g_dwMainThreadEventNum@@3KA, esi ; g_dwMainThreadEventNum
  00034	76 12		 jbe	 SHORT $LN1@EndMainThr
$LL3@EndMainThr:
; Line 162
  00036	ff 34 b5 00 00
	00 00		 push	 DWORD PTR ?g_hMainThreadEvent@@3PAPAXA[esi*4]
  0003d	ff d7		 call	 edi
  0003f	46		 inc	 esi
  00040	3b 35 00 00 00
	00		 cmp	 esi, DWORD PTR ?g_dwMainThreadEventNum@@3KA ; g_dwMainThreadEventNum
  00046	72 ee		 jb	 SHORT $LL3@EndMainThr
$LN1@EndMainThr:
; Line 164
  00048	ff 35 00 00 00
	00		 push	 DWORD PTR ?g_hMainThread@@3PAXA ; g_hMainThread
  0004e	ff d7		 call	 edi
; Line 165
  00050	ff 35 00 00 00
	00		 push	 DWORD PTR ?g_hCheckBreakEvent@@3PAXA ; g_hCheckBreakEvent
  00056	ff d7		 call	 edi
  00058	5f		 pop	 edi
  00059	5e		 pop	 esi
; Line 166
  0005a	c3		 ret	 0
?EndMainThread@@YAXXZ ENDP				; EndMainThread
_TEXT	ENDS
; Function compile flags: /Ogtp
;	COMDAT ?StartMainThread@@YAHK@Z
_TEXT	SEGMENT
_ThreadID$ = -4						; size = 4
_dwFlag$ = 8						; size = 4
?StartMainThread@@YAHK@Z PROC				; StartMainThread, COMDAT
; File e:\github\mso_code\4dyuchinet_latest\mainthread.cpp
; Line 102
  00000	55		 push	 ebp
  00001	8b ec		 mov	 ebp, esp
  00003	51		 push	 ecx
  00004	56		 push	 esi
; Line 106
  00005	8b 35 00 00 00
	00		 mov	 esi, DWORD PTR __imp__CreateEventA@16
  0000b	6a 00		 push	 0
  0000d	6a 00		 push	 0
  0000f	6a 00		 push	 0
  00011	6a 00		 push	 0
  00013	c7 45 fc 00 00
	00 00		 mov	 DWORD PTR _ThreadID$[ebp], 0
  0001a	ff d6		 call	 esi
; Line 107
  0001c	6a 00		 push	 0
  0001e	6a 00		 push	 0
  00020	6a 00		 push	 0
  00022	6a 00		 push	 0
  00024	a3 00 00 00 00	 mov	 DWORD PTR ?g_hMainThreadEvent@@3PAPAXA, eax
  00029	ff d6		 call	 esi
; Line 108
  0002b	6a 00		 push	 0
  0002d	6a 00		 push	 0
  0002f	6a 00		 push	 0
  00031	6a 00		 push	 0
  00033	a3 04 00 00 00	 mov	 DWORD PTR ?g_hMainThreadEvent@@3PAPAXA+4, eax
  00038	ff d6		 call	 esi
; Line 109
  0003a	6a 00		 push	 0
  0003c	6a 00		 push	 0
  0003e	6a 00		 push	 0
  00040	6a 00		 push	 0
  00042	a3 08 00 00 00	 mov	 DWORD PTR ?g_hMainThreadEvent@@3PAPAXA+8, eax
  00047	ff d6		 call	 esi
; Line 110
  00049	6a 00		 push	 0
  0004b	6a 00		 push	 0
  0004d	6a 00		 push	 0
  0004f	6a 00		 push	 0
  00051	a3 0c 00 00 00	 mov	 DWORD PTR ?g_hMainThreadEvent@@3PAPAXA+12, eax
  00056	ff d6		 call	 esi
; Line 111
  00058	6a 00		 push	 0
  0005a	6a 00		 push	 0
  0005c	6a 00		 push	 0
  0005e	6a 00		 push	 0
  00060	a3 10 00 00 00	 mov	 DWORD PTR ?g_hMainThreadEvent@@3PAPAXA+16, eax
  00065	ff d6		 call	 esi
  00067	a3 00 00 00 00	 mov	 DWORD PTR ?g_hCheckBreakEvent@@3PAXA, eax ; g_hCheckBreakEvent
; Line 114
  0006c	8d 45 fc	 lea	 eax, DWORD PTR _ThreadID$[ebp]
  0006f	50		 push	 eax
  00070	6a 00		 push	 0
  00072	6a 00		 push	 0
  00074	68 00 00 00 00	 push	 OFFSET ?ProcessMsgThread@@YGIPAX@Z ; ProcessMsgThread
  00079	6a 00		 push	 0
  0007b	6a 00		 push	 0
  0007d	e8 00 00 00 00	 call	 __beginthreadex
  00082	83 c4 18	 add	 esp, 24			; 00000018H
  00085	a3 00 00 00 00	 mov	 DWORD PTR ?g_hMainThread@@3PAXA, eax ; g_hMainThread
  0008a	5e		 pop	 esi
; Line 117
  0008b	83 f8 ff	 cmp	 eax, -1
  0008e	75 14		 jne	 SHORT $LN1@StartMainT
; Line 119
  00090	6a 00		 push	 0
  00092	68 00 00 00 00	 push	 OFFSET ??_C@_05NAOIJFC@Error?$AA@
  00097	68 00 00 00 00	 push	 OFFSET ??_C@_0BK@MLIPIAE@Fail?5to?5Create?5MainThread?$AA@
  0009c	6a 00		 push	 0
  0009e	ff 15 00 00 00
	00		 call	 DWORD PTR __imp__MessageBoxA@16
$LN1@StartMainT:
; Line 123
  000a4	33 c0		 xor	 eax, eax
; Line 125
  000a6	8b e5		 mov	 esp, ebp
  000a8	5d		 pop	 ebp
  000a9	c3		 ret	 0
?StartMainThread@@YAHK@Z ENDP				; StartMainThread
_TEXT	ENDS
END
