; Listing generated by Microsoft (R) Optimizing Compiler Version 18.00.30501.0 

	TITLE	E:\GitHub\Mso_Code\4DyuchiNET_Latest\memory_object.cpp
	.686P
	.XMM
	include listing.inc
	.model	flat

INCLUDELIB LIBCMT
INCLUDELIB OLDNAMES

PUBLIC	?InitializeMemoryObjectChain@@YAXPAUMEMORY_OBJECT@@K@Z ; InitializeMemoryObjectChain
; Function compile flags: /Ogtp
;	COMDAT ?InitializeMemoryObjectChain@@YAXPAUMEMORY_OBJECT@@K@Z
_TEXT	SEGMENT
_pMemory$ = 8						; size = 4
_dwNum$ = 12						; size = 4
?InitializeMemoryObjectChain@@YAXPAUMEMORY_OBJECT@@K@Z PROC ; InitializeMemoryObjectChain, COMDAT
; File e:\github\mso_code\4dyuchinet_latest\memory_object.cpp
; Line 7
  00000	55		 push	 ebp
  00001	8b ec		 mov	 ebp, esp
  00003	53		 push	 ebx
  00004	56		 push	 esi
; Line 18
  00005	33 f6		 xor	 esi, esi
; Line 20
  00007	8b 5d 08	 mov	 ebx, DWORD PTR _pMemory$[ebp]
; Line 21
  0000a	8b 4d 0c	 mov	 ecx, DWORD PTR _dwNum$[ebp]
; Line 22
  0000d	b8 40 00 00 00	 mov	 eax, 64			; 00000040H
; Line 23
  00012	8b d3		 mov	 edx, ebx
$lb_loop$4:
; Line 27
  00014	89 73 04	 mov	 DWORD PTR [ebx+4], esi
; Line 28
  00017	83 c2 4c	 add	 edx, 76			; 0000004cH
; Line 30
  0001a	89 13		 mov	 DWORD PTR [ebx], edx
; Line 31
  0001c	8b f3		 mov	 esi, ebx
; Line 32
  0001e	89 43 08	 mov	 DWORD PTR [ebx+8], eax
; Line 33
  00021	83 c3 4c	 add	 ebx, 76			; 0000004cH
; Line 35
  00024	e2 ee		 loop	 $lb_loop$4
; Line 37
  00026	83 eb 4c	 sub	 ebx, 76			; 0000004cH
; Line 38
  00029	c7 03 00 00 00
	00		 mov	 DWORD PTR [ebx], 0
; Line 16
  0002f	5e		 pop	 esi
  00030	5b		 pop	 ebx
; Line 42
  00031	5d		 pop	 ebp
  00032	c3		 ret	 0
?InitializeMemoryObjectChain@@YAXPAUMEMORY_OBJECT@@K@Z ENDP ; InitializeMemoryObjectChain
_TEXT	ENDS
END
