; Listing generated by Microsoft (R) Optimizing Compiler Version 18.00.30501.0 

	TITLE	E:\GitHub\Mso_Code\4DyuchiNET_Latest\net_global.cpp
	.686P
	.XMM
	include listing.inc
	.model	flat

INCLUDELIB LIBCMT
INCLUDELIB OLDNAMES

PUBLIC	?g_pICode@@3PAUICode@@A				; g_pICode
_BSS	SEGMENT
?g_pICode@@3PAUICode@@A DD 01H DUP (?)			; g_pICode
_BSS	ENDS
PUBLIC	?ErrorMsg@@YAXPAD@Z				; ErrorMsg
PUBLIC	??_C@_05NAOIJFC@Error?$AA@			; `string'
EXTRN	__imp__MessageBoxA@16:PROC
;	COMDAT ??_C@_05NAOIJFC@Error?$AA@
CONST	SEGMENT
??_C@_05NAOIJFC@Error?$AA@ DB 'Error', 00H		; `string'
CONST	ENDS
; Function compile flags: /Ogtp
;	COMDAT ?ErrorMsg@@YAXPAD@Z
_TEXT	SEGMENT
_pMsg$ = 8						; size = 4
?ErrorMsg@@YAXPAD@Z PROC				; ErrorMsg, COMDAT
; File e:\github\mso_code\4dyuchinet_latest\net_global.cpp
; Line 5
  00000	55		 push	 ebp
  00001	8b ec		 mov	 ebp, esp
; Line 6
  00003	6a 00		 push	 0
  00005	68 00 00 00 00	 push	 OFFSET ??_C@_05NAOIJFC@Error?$AA@
  0000a	ff 75 08	 push	 DWORD PTR _pMsg$[ebp]
  0000d	6a 00		 push	 0
  0000f	ff 15 00 00 00
	00		 call	 DWORD PTR __imp__MessageBoxA@16
; Line 7
  00015	5d		 pop	 ebp
  00016	c3		 ret	 0
?ErrorMsg@@YAXPAD@Z ENDP				; ErrorMsg
_TEXT	ENDS
END
