; Listing generated by Microsoft (R) Optimizing Compiler Version 18.00.30501.0 

	TITLE	E:\GitHub\Mso_Code\4DyuchiNET_Latest\overlapped_udp.cpp
	.686P
	.XMM
	include listing.inc
	.model	flat

INCLUDELIB LIBCMT
INCLUDELIB OLDNAMES

PUBLIC	?Initialize@COverlappedUDP@@QAEXXZ		; COverlappedUDP::Initialize
PUBLIC	?PrepareRead@COverlappedUDP@@QAEHXZ		; COverlappedUDP::PrepareRead
PUBLIC	??0COverlappedUDP@@QAE@XZ			; COverlappedUDP::COverlappedUDP
PUBLIC	??_C@_05NAOIJFC@Error?$AA@			; `string'
PUBLIC	??_C@_0BE@JBPMLOBJ@WSARecvFrom?$CI?$CJ?5Error?$AA@ ; `string'
EXTRN	__imp__GetActiveWindow@0:PROC
EXTRN	__imp__MessageBoxA@16:PROC
EXTRN	__imp__WSAGetLastError@0:PROC
EXTRN	__imp__WSARecvFrom@36:PROC
EXTRN	??0COverlapped@@QAE@XZ:PROC			; COverlapped::COverlapped
;	COMDAT ??_C@_0BE@JBPMLOBJ@WSARecvFrom?$CI?$CJ?5Error?$AA@
CONST	SEGMENT
??_C@_0BE@JBPMLOBJ@WSARecvFrom?$CI?$CJ?5Error?$AA@ DB 'WSARecvFrom() Erro'
	DB	'r', 00H					; `string'
CONST	ENDS
;	COMDAT ??_C@_05NAOIJFC@Error?$AA@
CONST	SEGMENT
??_C@_05NAOIJFC@Error?$AA@ DB 'Error', 00H		; `string'
CONST	ENDS
; Function compile flags: /Ogtp
;	COMDAT ??0COverlappedUDP@@QAE@XZ
_TEXT	SEGMENT
??0COverlappedUDP@@QAE@XZ PROC				; COverlappedUDP::COverlappedUDP, COMDAT
; _this$ = ecx
; File e:\github\mso_code\4dyuchinet_latest\overlapped_udp.cpp
; Line 4
  00000	56		 push	 esi
  00001	8b f1		 mov	 esi, ecx
  00003	e8 00 00 00 00	 call	 ??0COverlapped@@QAE@XZ	; COverlapped::COverlapped
  00008	0f 57 c0	 xorps	 xmm0, xmm0
; Line 6
  0000b	8b c6		 mov	 eax, esi
; Line 11
  0000d	f3 0f 7f 06	 movdqu	 XMMWORD PTR [esi], xmm0
  00011	c7 46 10 00 00
	00 00		 mov	 DWORD PTR [esi+16], 0
; Line 12
  00018	c7 46 1c ff ff
	ff ff		 mov	 DWORD PTR [esi+28], -1
; Line 13
  0001f	c7 46 14 02 00
	00 00		 mov	 DWORD PTR [esi+20], 2
; Line 14
  00026	c7 46 28 00 80
	00 00		 mov	 DWORD PTR [esi+40], 32768 ; 00008000H
; Line 15
  0002d	c7 46 40 10 00
	00 00		 mov	 DWORD PTR [esi+64], 16	; 00000010H
  00034	5e		 pop	 esi
; Line 6
  00035	c3		 ret	 0
??0COverlappedUDP@@QAE@XZ ENDP				; COverlappedUDP::COverlappedUDP
_TEXT	ENDS
; Function compile flags: /Ogtp
;	COMDAT ?PrepareRead@COverlappedUDP@@QAEHXZ
_TEXT	SEGMENT
_wsabuf$ = -8						; size = 8
?PrepareRead@COverlappedUDP@@QAEHXZ PROC		; COverlappedUDP::PrepareRead, COMDAT
; _this$ = ecx
; File e:\github\mso_code\4dyuchinet_latest\overlapped_udp.cpp
; Line 19
  00000	55		 push	 ebp
  00001	8b ec		 mov	 ebp, esp
  00003	83 ec 08	 sub	 esp, 8
; Line 35
  00006	6a 00		 push	 0
  00008	51		 push	 ecx
  00009	8d 41 44	 lea	 eax, DWORD PTR [ecx+68]
  0000c	c7 45 f8 00 04
	00 00		 mov	 DWORD PTR _wsabuf$[ebp], 1024 ; 00000400H
  00013	89 45 fc	 mov	 DWORD PTR _wsabuf$[ebp+4], eax
  00016	8d 41 40	 lea	 eax, DWORD PTR [ecx+64]
  00019	50		 push	 eax
  0001a	8d 41 30	 lea	 eax, DWORD PTR [ecx+48]
  0001d	50		 push	 eax
  0001e	8d 41 28	 lea	 eax, DWORD PTR [ecx+40]
  00021	50		 push	 eax
  00022	8d 41 18	 lea	 eax, DWORD PTR [ecx+24]
  00025	50		 push	 eax
  00026	6a 01		 push	 1
  00028	8d 45 f8	 lea	 eax, DWORD PTR _wsabuf$[ebp]
  0002b	50		 push	 eax
  0002c	ff 71 1c	 push	 DWORD PTR [ecx+28]
  0002f	ff 15 00 00 00
	00		 call	 DWORD PTR __imp__WSARecvFrom@36
; Line 37
  00035	83 f8 ff	 cmp	 eax, -1
  00038	74 09		 je	 SHORT $LN2@PrepareRea
$LN5@PrepareRea:
; Line 38
  0003a	b8 01 00 00 00	 mov	 eax, 1
; Line 49
  0003f	8b e5		 mov	 esp, ebp
  00041	5d		 pop	 ebp
  00042	c3		 ret	 0
$LN2@PrepareRea:
; Line 40
  00043	ff 15 00 00 00
	00		 call	 DWORD PTR __imp__WSAGetLastError@0
; Line 42
  00049	3d e5 03 00 00	 cmp	 eax, 997		; 000003e5H
  0004e	74 ea		 je	 SHORT $LN5@PrepareRea
; Line 47
  00050	6a 00		 push	 0
  00052	68 00 00 00 00	 push	 OFFSET ??_C@_05NAOIJFC@Error?$AA@
  00057	68 00 00 00 00	 push	 OFFSET ??_C@_0BE@JBPMLOBJ@WSARecvFrom?$CI?$CJ?5Error?$AA@
  0005c	ff 15 00 00 00
	00		 call	 DWORD PTR __imp__GetActiveWindow@0
  00062	50		 push	 eax
  00063	ff 15 00 00 00
	00		 call	 DWORD PTR __imp__MessageBoxA@16
; Line 48
  00069	33 c0		 xor	 eax, eax
; Line 49
  0006b	8b e5		 mov	 esp, ebp
  0006d	5d		 pop	 ebp
  0006e	c3		 ret	 0
?PrepareRead@COverlappedUDP@@QAEHXZ ENDP		; COverlappedUDP::PrepareRead
_TEXT	ENDS
; Function compile flags: /Ogtp
;	COMDAT ?Initialize@COverlappedUDP@@QAEXXZ
_TEXT	SEGMENT
?Initialize@COverlappedUDP@@QAEXXZ PROC			; COverlappedUDP::Initialize, COMDAT
; _this$ = ecx
; File e:\github\mso_code\4dyuchinet_latest\overlapped_udp.cpp
; Line 8
  00000	0f 57 c0	 xorps	 xmm0, xmm0
; Line 11
  00003	f3 0f 7f 01	 movdqu	 XMMWORD PTR [ecx], xmm0
  00007	c7 41 10 00 00
	00 00		 mov	 DWORD PTR [ecx+16], 0
; Line 12
  0000e	c7 41 1c ff ff
	ff ff		 mov	 DWORD PTR [ecx+28], -1
; Line 13
  00015	c7 41 14 02 00
	00 00		 mov	 DWORD PTR [ecx+20], 2
; Line 14
  0001c	c7 41 28 00 80
	00 00		 mov	 DWORD PTR [ecx+40], 32768 ; 00008000H
; Line 15
  00023	c7 41 40 10 00
	00 00		 mov	 DWORD PTR [ecx+64], 16	; 00000010H
; Line 16
  0002a	c3		 ret	 0
?Initialize@COverlappedUDP@@QAEXXZ ENDP			; COverlappedUDP::Initialize
_TEXT	ENDS
END
