; Listing generated by Microsoft (R) Optimizing Compiler Version 18.00.30501.0 

	TITLE	E:\GitHub\Mso_Code\4DyuchiNET_Latest\conetwork.cpp
	.686P
	.XMM
	include listing.inc
	.model	flat

INCLUDELIB LIBCMT
INCLUDELIB OLDNAMES

PUBLIC	_CLSID_4DyuchiNET
PUBLIC	_IID_4DyuchiNET
PUBLIC	_CLSID_CODE
PUBLIC	_IID_CODE
;	COMDAT _IID_CODE
CONST	SEGMENT
_IID_CODE DD	075a34c0dH
	DW	096b3H
	DW	04820H
	DB	09cH
	DB	02H
	DB	079H
	DB	025H
	DB	0afH
	DB	067H
	DB	0e5H
	DB	06aH
CONST	ENDS
;	COMDAT _CLSID_CODE
CONST	SEGMENT
_CLSID_CODE DD	0824cf1ecH
	DW	0124H
	DW	04cc2H
	DB	0beH
	DB	055H
	DB	0e9H
	DB	0faH
	DB	0fbH
	DB	05fH
	DB	0b3H
	DB	06dH
CONST	ENDS
;	COMDAT _IID_4DyuchiNET
CONST	SEGMENT
_IID_4DyuchiNET DD 0d41bd0f8H
	DW	07bfH
	DW	04dbcH
	DB	08aH
	DB	0d3H
	DB	0a3H
	DB	052H
	DB	04cH
	DB	0c4H
	DB	03eH
	DB	05eH
CONST	ENDS
;	COMDAT _CLSID_4DyuchiNET
CONST	SEGMENT
_CLSID_4DyuchiNET DD 011c02a88H
	DW	08bf9H
	DW	04863H
	DB	0a7H
	DB	0deH
	DB	01bH
	DB	0f6H
	DB	06dH
	DB	060H
	DB	0cbH
	DB	0a3H
CONST	ENDS
CONST	SEGMENT
$SG92448 DB	'eventlog.txt', 00H
	ORG $+3
$SG92646 DB	'EndPreConnectPool Begin', 0aH, 00H
	ORG $+3
$SG92647 DB	'EndPreConnectPool Finished', 0aH, 00H
$SG92648 DB	'Release Sockets For User Begin', 0aH, 00H
$SG92650 DB	'Release Sockets For User Finished', 0aH, 00H
	ORG $+1
$SG92651 DB	'Release Sockets For Server Begin', 0aH, 00H
	ORG $+2
$SG92653 DB	'Release Sockets For Server Finished', 0aH, 00H
	ORG $+3
$SG92654 DB	'CloseComplitionIO() Begin', 0aH, 00H
	ORG $+1
$SG92655 DB	'CloseComplitionIO() Finished', 0aH, 00H
	ORG $+2
$SG92656 DB	'EndMainThread() Begin', 0aH, 00H
	ORG $+1
$SG92657 DB	'EndMainThread() Finished', 0aH, 00H
	ORG $+2
$SG92658 DB	'EndSwitchQueThread() Begin', 0aH, 00H
$SG92659 DB	'EndSwitchQueThread() Finished', 0aH, 00H
	ORG $+1
$SG92660 DB	'RemoveAllTimer() Begin', 0aH, 00H
$SG92661 DB	'RemoveAllTimer() Finished', 0aH, 00H
	ORG $+1
$SG92663 DB	'Remove ICode', 0aH, 00H
	ORG $+2
$SG92664 DB	'Remove ICode Complete', 0aH, 00H
	ORG $+1
$SG92666 DB	'Remove UserForNetwork', 0aH, 00H
	ORG $+1
$SG92669 DB	'Remove UserForNetwork Complete', 0aH, 00H
$SG92671 DB	'Remove ServerForNetwork', 0aH, 00H
	ORG $+3
$SG92674 DB	'Remove ServerForNetwork Complete', 0aH, 00H
	ORG $+2
$SG92676 DB	'Remove QueManager', 0aH, 00H
	ORG $+1
$SG92679 DB	'Remove QueManager Complete', 0aH, 00H
$SG92681 DB	'Remove LogManager', 0aH, 00H
	ORG $+1
$SG92684 DB	'Remove LogManager Complete', 0aH, 00H
$SG92705 DB	'parameter : NULL ptr', 00H
	ORG $+3
$SG92708 DB	'parameter : dwMaxUserNum invalide', 00H
	ORG $+2
$SG92710 DB	'parameter : OnRecvFromUserTCP invalide', 00H
	ORG $+1
$SG92712 DB	'parameter : OnConnectUser invalide', 00H
	ORG $+1
$SG92715 DB	'parameter : dwMaxUserMaxTransferSize invalide', 00H
	ORG $+2
$SG92718 DB	'parameter : dwUserBufferSizePerConnection invalide', 00H
	ORG $+1
$SG92721 DB	'parameter : dwMaxServerNum invalide', 00H
$SG92723 DB	'parameter : OnRecvFromServerTCP invalide', 00H
	ORG $+3
$SG92725 DB	'parameter : OnConnectServer invalide', 00H
	ORG $+3
$SG92728 DB	'parameter : dwMaxServerMaxTransferSize invalide', 00H
$SG92731 DB	'parameter : dwServerBufferSizePerConnection invalide', 00H
	ORG $+3
$SG92736 DB	'parameter : dwMainMsgQueMaxBufferSize invalide', 00H
	ORG $+1
$SG92738 DB	'parameter : dwCustomDefineEventNum invalide', 00H
$SG92744 DB	'parameter : dwCustomDefineEvent invalide', 00H
	ORG $+3
$SG92753 DB	'%s', 00H
CONST	ENDS
PUBLIC	?QueryInterface@Co4DyuchiNET@@UAGJABU_GUID@@PAPAX@Z ; Co4DyuchiNET::QueryInterface
PUBLIC	?AddRef@Co4DyuchiNET@@UAGKXZ			; Co4DyuchiNET::AddRef
PUBLIC	?Release@Co4DyuchiNET@@UAGKXZ			; Co4DyuchiNET::Release
PUBLIC	?CreateNetwork@Co4DyuchiNET@@UAGHPAUDESC_NETWORK@@KKP6GKPAX@Z@Z ; Co4DyuchiNET::CreateNetwork
PUBLIC	?BreakMainThread@Co4DyuchiNET@@UAGXXZ		; Co4DyuchiNET::BreakMainThread
PUBLIC	?ResumeMainThread@Co4DyuchiNET@@UAGXXZ		; Co4DyuchiNET::ResumeMainThread
PUBLIC	?SetUserInfo@Co4DyuchiNET@@UAGXKPAX@Z		; Co4DyuchiNET::SetUserInfo
PUBLIC	?GetUserInfo@Co4DyuchiNET@@UAGPAXK@Z		; Co4DyuchiNET::GetUserInfo
PUBLIC	?SetServerInfo@Co4DyuchiNET@@UAGXKPAX@Z		; Co4DyuchiNET::SetServerInfo
PUBLIC	?GetServerInfo@Co4DyuchiNET@@UAGPAXK@Z		; Co4DyuchiNET::GetServerInfo
PUBLIC	?GetServerAddress@Co4DyuchiNET@@UAGPAUsockaddr_in@@K@Z ; Co4DyuchiNET::GetServerAddress
PUBLIC	?GetUserAddress@Co4DyuchiNET@@UAGPAUsockaddr_in@@K@Z ; Co4DyuchiNET::GetUserAddress
PUBLIC	?GetServerAddress@Co4DyuchiNET@@UAGHKPADPAG@Z	; Co4DyuchiNET::GetServerAddress
PUBLIC	?GetUserAddress@Co4DyuchiNET@@UAGHKPADPAG@Z	; Co4DyuchiNET::GetUserAddress
PUBLIC	?SendToServer@Co4DyuchiNET@@UAGHKPADKK@Z	; Co4DyuchiNET::SendToServer
PUBLIC	?SendToUser@Co4DyuchiNET@@UAGHKPADKK@Z		; Co4DyuchiNET::SendToUser
PUBLIC	?CompulsiveDisconnectServer@Co4DyuchiNET@@UAGXK@Z ; Co4DyuchiNET::CompulsiveDisconnectServer
PUBLIC	?CompulsiveDisconnectUser@Co4DyuchiNET@@UAGXK@Z	; Co4DyuchiNET::CompulsiveDisconnectUser
PUBLIC	?GetServerMaxTransferRecvSize@Co4DyuchiNET@@UAGHXZ ; Co4DyuchiNET::GetServerMaxTransferRecvSize
PUBLIC	?GetServerMaxTransferSendSize@Co4DyuchiNET@@UAGHXZ ; Co4DyuchiNET::GetServerMaxTransferSendSize
PUBLIC	?GetUserMaxTransferRecvSize@Co4DyuchiNET@@UAGHXZ ; Co4DyuchiNET::GetUserMaxTransferRecvSize
PUBLIC	?GetUserMaxTransferSendSize@Co4DyuchiNET@@UAGHXZ ; Co4DyuchiNET::GetUserMaxTransferSendSize
PUBLIC	?BroadcastServer@Co4DyuchiNET@@UAGXPADKK@Z	; Co4DyuchiNET::BroadcastServer
PUBLIC	?BroadcastUser@Co4DyuchiNET@@UAGXPADKK@Z	; Co4DyuchiNET::BroadcastUser
PUBLIC	?GetConnectedServerNum@Co4DyuchiNET@@UAGKXZ	; Co4DyuchiNET::GetConnectedServerNum
PUBLIC	?GetConnectedUserNum@Co4DyuchiNET@@UAGKXZ	; Co4DyuchiNET::GetConnectedUserNum
PUBLIC	?GetBindedPortServerSide@Co4DyuchiNET@@UAGGXZ	; Co4DyuchiNET::GetBindedPortServerSide
PUBLIC	?GetBindedPortUserSide@Co4DyuchiNET@@UAGGXZ	; Co4DyuchiNET::GetBindedPortUserSide
PUBLIC	?ConnectToServerWithUserSide@Co4DyuchiNET@@UAGHPADGP6GXKPAX@ZP6GX1@Z1@Z ; Co4DyuchiNET::ConnectToServerWithUserSide
PUBLIC	?ConnectToServerWithServerSide@Co4DyuchiNET@@UAGHPADGP6GXKPAX@ZP6GX1@Z1@Z ; Co4DyuchiNET::ConnectToServerWithServerSide
PUBLIC	?StartServerWithUserSide@Co4DyuchiNET@@UAGHPADG@Z ; Co4DyuchiNET::StartServerWithUserSide
PUBLIC	?StartServerWithServerSide@Co4DyuchiNET@@UAGHPADG@Z ; Co4DyuchiNET::StartServerWithServerSide
PUBLIC	?GetCustomEventHandle@Co4DyuchiNET@@UAGPAXK@Z	; Co4DyuchiNET::GetCustomEventHandle
PUBLIC	?SendToServer@Co4DyuchiNET@@UAGHKPAUINET_BUF@@KK@Z ; Co4DyuchiNET::SendToServer
PUBLIC	?SendToUser@Co4DyuchiNET@@UAGHKPAUINET_BUF@@KK@Z ; Co4DyuchiNET::SendToUser
PUBLIC	?SendToServer@Co4DyuchiNET@@UAGHKPAUPACKET_LIST@@K@Z ; Co4DyuchiNET::SendToServer
PUBLIC	?SendToUser@Co4DyuchiNET@@UAGHKPAUPACKET_LIST@@K@Z ; Co4DyuchiNET::SendToUser
PUBLIC	?GetMyAddress@Co4DyuchiNET@@UAGHPADK@Z		; Co4DyuchiNET::GetMyAddress
PUBLIC	??0Co4DyuchiNET@@QAE@XZ				; Co4DyuchiNET::Co4DyuchiNET
PUBLIC	??1Co4DyuchiNET@@QAE@XZ				; Co4DyuchiNET::~Co4DyuchiNET
PUBLIC	?DestroyNetwork@Co4DyuchiNET@@AAEXXZ		; Co4DyuchiNET::DestroyNetwork
PUBLIC	?CheckParameter@Co4DyuchiNET@@AAEHPAUDESC_NETWORK@@@Z ; Co4DyuchiNET::CheckParameter
PUBLIC	??_7I4DyuchiNET@@6B@				; I4DyuchiNET::`vftable'
PUBLIC	??_7Co4DyuchiNET@@6B@				; Co4DyuchiNET::`vftable'
PUBLIC	??_R0?AUIUnknown@@@8				; IUnknown `RTTI Type Descriptor'
PUBLIC	??_R3IUnknown@@8				; IUnknown::`RTTI Class Hierarchy Descriptor'
PUBLIC	??_R2IUnknown@@8				; IUnknown::`RTTI Base Class Array'
PUBLIC	??_R1A@?0A@EA@IUnknown@@8			; IUnknown::`RTTI Base Class Descriptor at (0,-1,0,64)'
PUBLIC	??_R4I4DyuchiNET@@6B@				; I4DyuchiNET::`RTTI Complete Object Locator'
PUBLIC	??_R0?AUI4DyuchiNET@@@8				; I4DyuchiNET `RTTI Type Descriptor'
PUBLIC	??_R3I4DyuchiNET@@8				; I4DyuchiNET::`RTTI Class Hierarchy Descriptor'
PUBLIC	??_R2I4DyuchiNET@@8				; I4DyuchiNET::`RTTI Base Class Array'
PUBLIC	??_R1A@?0A@EA@I4DyuchiNET@@8			; I4DyuchiNET::`RTTI Base Class Descriptor at (0,-1,0,64)'
PUBLIC	??_R4Co4DyuchiNET@@6B@				; Co4DyuchiNET::`RTTI Complete Object Locator'
PUBLIC	??_R0?AVCo4DyuchiNET@@@8			; Co4DyuchiNET `RTTI Type Descriptor'
PUBLIC	??_R3Co4DyuchiNET@@8				; Co4DyuchiNET::`RTTI Class Hierarchy Descriptor'
PUBLIC	??_R2Co4DyuchiNET@@8				; Co4DyuchiNET::`RTTI Base Class Array'
PUBLIC	??_R1A@?0A@EA@Co4DyuchiNET@@8			; Co4DyuchiNET::`RTTI Base Class Descriptor at (0,-1,0,64)'
EXTRN	__purecall:PROC
EXTRN	??2@YAPAXI@Z:PROC				; operator new
EXTRN	??3@YAXPAX@Z:PROC				; operator delete
EXTRN	__imp__wsprintfA:PROC
EXTRN	__imp__inet_ntoa@4:PROC
EXTRN	__imp__gethostbyname@4:PROC
EXTRN	__imp__gethostname@8:PROC
EXTRN	_printf:PROC
EXTRN	?InitCompletionIO@@YAHKPAX@Z:PROC		; InitCompletionIO
EXTRN	?CloseComplitionIO@@YAXXZ:PROC			; CloseComplitionIO
EXTRN	?CleanSocket@@YAXXZ:PROC			; CleanSocket
EXTRN	?InitSocket@@YAXXZ:PROC				; InitSocket
EXTRN	?StartMainThread@@YAHK@Z:PROC			; StartMainThread
EXTRN	?EndMainThread@@YAXXZ:PROC			; EndMainThread
EXTRN	?GetMainThreadMsgEvent@@YAPAXXZ:PROC		; GetMainThreadMsgEvent
EXTRN	?GetMainThreadUserDefineEvent@@YAPAXK@Z:PROC	; GetMainThreadUserDefineEvent
EXTRN	?SetMainThreadUserDefineEventFunc@@YAXKP6GXK@Z@Z:PROC ; SetMainThreadUserDefineEventFunc
EXTRN	?SetMainThreadUserDefineEventNum@@YAXK@Z:PROC	; SetMainThreadUserDefineEventNum
EXTRN	?BreakMainThread@@YAXXZ:PROC			; BreakMainThread
EXTRN	?ResumeMainThread@@YAXXZ:PROC			; ResumeMainThread
EXTRN	?SetOnInitialFunc@@YAXP6GKPAX@Z@Z:PROC		; SetOnInitialFunc
EXTRN	?GetAddress@CConnection@@QAEHPADPAG@Z:PROC	; CConnection::GetAddress
EXTRN	?ReleaseListenSocket@CNetwork@@QAEXXZ:PROC	; CNetwork::ReleaseListenSocket
EXTRN	?CompulsiveDisconnect@CNetwork@@QAEXK@Z:PROC	; CNetwork::CompulsiveDisconnect
EXTRN	?Broadcast@CNetwork@@QAEXPADKK@Z:PROC		; CNetwork::Broadcast
EXTRN	?Send@CNetwork@@QAEHKPADKK@Z:PROC		; CNetwork::Send
EXTRN	?Send@CNetwork@@QAEHKPAU_WSABUF@@KK@Z:PROC	; CNetwork::Send
EXTRN	?Send@CNetwork@@QAEHKPAUPACKET_LIST@@K@Z:PROC	; CNetwork::Send
EXTRN	?GetConnection@CNetwork@@QAEXPAPAVCConnection@@K@Z:PROC ; CNetwork::GetConnection
EXTRN	?SetBufferSizePerConnection@CNetwork@@QAEXK@Z:PROC ; CNetwork::SetBufferSizePerConnection
EXTRN	?ConnectToServer@CNetwork@@QAEHPADGP6GXKPAX@ZP6GX1@Z1@Z:PROC ; CNetwork::ConnectToServer
EXTRN	?StartServer@CNetwork@@QAEHPADG@Z:PROC		; CNetwork::StartServer
EXTRN	??0CNetwork@@QAE@W4NETWORK_ID@@KKK@Z:PROC	; CNetwork::CNetwork
EXTRN	??1CNetwork@@QAE@XZ:PROC			; CNetwork::~CNetwork
EXTRN	?InitializeTimer@@YAXXZ:PROC			; InitializeTimer
EXTRN	?AddTimer@@YAKKPAXK@Z:PROC			; AddTimer
EXTRN	?RemoveAllTimer@@YAXXZ:PROC			; RemoveAllTimer
EXTRN	?ErrorMsg@@YAXPAD@Z:PROC			; ErrorMsg
EXTRN	?Initialize@CLogManager@@QAEHPADK@Z:PROC	; CLogManager::Initialize
EXTRN	??0CLogManager@@QAE@XZ:PROC			; CLogManager::CLogManager
EXTRN	??1CLogManager@@QAE@XZ:PROC			; CLogManager::~CLogManager
EXTRN	??1CQueManager@@QAE@XZ:PROC			; CQueManager::~CQueManager
EXTRN	?EndSwitchQueThread@@YAXXZ:PROC			; EndSwitchQueThread
EXTRN	?StartPreConnectPool@@YAHKK@Z:PROC		; StartPreConnectPool
EXTRN	?EndPreConnectPool@@YAXXZ:PROC			; EndPreConnectPool
EXTRN	@__security_check_cookie@4:PROC
EXTRN	___CxxFrameHandler3:PROC
EXTRN	_memcmp:PROC
EXTRN	_IID_IUnknown:BYTE
EXTRN	?g_pNetworkForUser@@3PAVCNetwork@@A:DWORD	; g_pNetworkForUser
EXTRN	?g_pNetworkForServer@@3PAVCNetwork@@A:DWORD	; g_pNetworkForServer
EXTRN	?g_pICode@@3PAUICode@@A:DWORD			; g_pICode
EXTRN	?g_pLogManager@@3PAVCLogManager@@A:DWORD	; g_pLogManager
EXTRN	?g_pQueManager@@3PAVCQueManager@@A:DWORD	; g_pQueManager
EXTRN	??_7type_info@@6B@:QWORD			; type_info::`vftable'
EXTRN	___security_cookie:DWORD
;	COMDAT ??_R1A@?0A@EA@Co4DyuchiNET@@8
rdata$r	SEGMENT
??_R1A@?0A@EA@Co4DyuchiNET@@8 DD FLAT:??_R0?AVCo4DyuchiNET@@@8 ; Co4DyuchiNET::`RTTI Base Class Descriptor at (0,-1,0,64)'
	DD	02H
	DD	00H
	DD	0ffffffffH
	DD	00H
	DD	040H
	DD	FLAT:??_R3Co4DyuchiNET@@8
rdata$r	ENDS
;	COMDAT ??_R2Co4DyuchiNET@@8
rdata$r	SEGMENT
??_R2Co4DyuchiNET@@8 DD FLAT:??_R1A@?0A@EA@Co4DyuchiNET@@8 ; Co4DyuchiNET::`RTTI Base Class Array'
	DD	FLAT:??_R1A@?0A@EA@I4DyuchiNET@@8
	DD	FLAT:??_R1A@?0A@EA@IUnknown@@8
rdata$r	ENDS
;	COMDAT ??_R3Co4DyuchiNET@@8
rdata$r	SEGMENT
??_R3Co4DyuchiNET@@8 DD 00H				; Co4DyuchiNET::`RTTI Class Hierarchy Descriptor'
	DD	00H
	DD	03H
	DD	FLAT:??_R2Co4DyuchiNET@@8
rdata$r	ENDS
;	COMDAT ??_R0?AVCo4DyuchiNET@@@8
data$r	SEGMENT
??_R0?AVCo4DyuchiNET@@@8 DD FLAT:??_7type_info@@6B@	; Co4DyuchiNET `RTTI Type Descriptor'
	DD	00H
	DB	'.?AVCo4DyuchiNET@@', 00H
data$r	ENDS
;	COMDAT ??_R4Co4DyuchiNET@@6B@
rdata$r	SEGMENT
??_R4Co4DyuchiNET@@6B@ DD 00H				; Co4DyuchiNET::`RTTI Complete Object Locator'
	DD	00H
	DD	00H
	DD	FLAT:??_R0?AVCo4DyuchiNET@@@8
	DD	FLAT:??_R3Co4DyuchiNET@@8
rdata$r	ENDS
;	COMDAT ??_R1A@?0A@EA@I4DyuchiNET@@8
rdata$r	SEGMENT
??_R1A@?0A@EA@I4DyuchiNET@@8 DD FLAT:??_R0?AUI4DyuchiNET@@@8 ; I4DyuchiNET::`RTTI Base Class Descriptor at (0,-1,0,64)'
	DD	01H
	DD	00H
	DD	0ffffffffH
	DD	00H
	DD	040H
	DD	FLAT:??_R3I4DyuchiNET@@8
rdata$r	ENDS
;	COMDAT ??_R2I4DyuchiNET@@8
rdata$r	SEGMENT
??_R2I4DyuchiNET@@8 DD FLAT:??_R1A@?0A@EA@I4DyuchiNET@@8 ; I4DyuchiNET::`RTTI Base Class Array'
	DD	FLAT:??_R1A@?0A@EA@IUnknown@@8
rdata$r	ENDS
;	COMDAT ??_R3I4DyuchiNET@@8
rdata$r	SEGMENT
??_R3I4DyuchiNET@@8 DD 00H				; I4DyuchiNET::`RTTI Class Hierarchy Descriptor'
	DD	00H
	DD	02H
	DD	FLAT:??_R2I4DyuchiNET@@8
rdata$r	ENDS
;	COMDAT ??_R0?AUI4DyuchiNET@@@8
data$r	SEGMENT
??_R0?AUI4DyuchiNET@@@8 DD FLAT:??_7type_info@@6B@	; I4DyuchiNET `RTTI Type Descriptor'
	DD	00H
	DB	'.?AUI4DyuchiNET@@', 00H
data$r	ENDS
;	COMDAT ??_R4I4DyuchiNET@@6B@
rdata$r	SEGMENT
??_R4I4DyuchiNET@@6B@ DD 00H				; I4DyuchiNET::`RTTI Complete Object Locator'
	DD	00H
	DD	00H
	DD	FLAT:??_R0?AUI4DyuchiNET@@@8
	DD	FLAT:??_R3I4DyuchiNET@@8
rdata$r	ENDS
;	COMDAT ??_R1A@?0A@EA@IUnknown@@8
rdata$r	SEGMENT
??_R1A@?0A@EA@IUnknown@@8 DD FLAT:??_R0?AUIUnknown@@@8	; IUnknown::`RTTI Base Class Descriptor at (0,-1,0,64)'
	DD	00H
	DD	00H
	DD	0ffffffffH
	DD	00H
	DD	040H
	DD	FLAT:??_R3IUnknown@@8
rdata$r	ENDS
;	COMDAT ??_R2IUnknown@@8
rdata$r	SEGMENT
??_R2IUnknown@@8 DD FLAT:??_R1A@?0A@EA@IUnknown@@8	; IUnknown::`RTTI Base Class Array'
rdata$r	ENDS
;	COMDAT ??_R3IUnknown@@8
rdata$r	SEGMENT
??_R3IUnknown@@8 DD 00H					; IUnknown::`RTTI Class Hierarchy Descriptor'
	DD	00H
	DD	01H
	DD	FLAT:??_R2IUnknown@@8
rdata$r	ENDS
;	COMDAT ??_R0?AUIUnknown@@@8
data$r	SEGMENT
??_R0?AUIUnknown@@@8 DD FLAT:??_7type_info@@6B@		; IUnknown `RTTI Type Descriptor'
	DD	00H
	DB	'.?AUIUnknown@@', 00H
data$r	ENDS
;	COMDAT ??_7Co4DyuchiNET@@6B@
CONST	SEGMENT
??_7Co4DyuchiNET@@6B@ DD FLAT:??_R4Co4DyuchiNET@@6B@	; Co4DyuchiNET::`vftable'
	DD	FLAT:?QueryInterface@Co4DyuchiNET@@UAGJABU_GUID@@PAPAX@Z
	DD	FLAT:?AddRef@Co4DyuchiNET@@UAGKXZ
	DD	FLAT:?Release@Co4DyuchiNET@@UAGKXZ
	DD	FLAT:?CreateNetwork@Co4DyuchiNET@@UAGHPAUDESC_NETWORK@@KKP6GKPAX@Z@Z
	DD	FLAT:?BreakMainThread@Co4DyuchiNET@@UAGXXZ
	DD	FLAT:?ResumeMainThread@Co4DyuchiNET@@UAGXXZ
	DD	FLAT:?SetUserInfo@Co4DyuchiNET@@UAGXKPAX@Z
	DD	FLAT:?GetUserInfo@Co4DyuchiNET@@UAGPAXK@Z
	DD	FLAT:?SetServerInfo@Co4DyuchiNET@@UAGXKPAX@Z
	DD	FLAT:?GetServerInfo@Co4DyuchiNET@@UAGPAXK@Z
	DD	FLAT:?GetServerAddress@Co4DyuchiNET@@UAGHKPADPAG@Z
	DD	FLAT:?GetServerAddress@Co4DyuchiNET@@UAGPAUsockaddr_in@@K@Z
	DD	FLAT:?GetUserAddress@Co4DyuchiNET@@UAGHKPADPAG@Z
	DD	FLAT:?GetUserAddress@Co4DyuchiNET@@UAGPAUsockaddr_in@@K@Z
	DD	FLAT:?SendToServer@Co4DyuchiNET@@UAGHKPAUPACKET_LIST@@K@Z
	DD	FLAT:?SendToServer@Co4DyuchiNET@@UAGHKPAUINET_BUF@@KK@Z
	DD	FLAT:?SendToServer@Co4DyuchiNET@@UAGHKPADKK@Z
	DD	FLAT:?SendToUser@Co4DyuchiNET@@UAGHKPAUPACKET_LIST@@K@Z
	DD	FLAT:?SendToUser@Co4DyuchiNET@@UAGHKPAUINET_BUF@@KK@Z
	DD	FLAT:?SendToUser@Co4DyuchiNET@@UAGHKPADKK@Z
	DD	FLAT:?CompulsiveDisconnectServer@Co4DyuchiNET@@UAGXK@Z
	DD	FLAT:?CompulsiveDisconnectUser@Co4DyuchiNET@@UAGXK@Z
	DD	FLAT:?GetServerMaxTransferRecvSize@Co4DyuchiNET@@UAGHXZ
	DD	FLAT:?GetServerMaxTransferSendSize@Co4DyuchiNET@@UAGHXZ
	DD	FLAT:?GetUserMaxTransferRecvSize@Co4DyuchiNET@@UAGHXZ
	DD	FLAT:?GetUserMaxTransferSendSize@Co4DyuchiNET@@UAGHXZ
	DD	FLAT:?BroadcastServer@Co4DyuchiNET@@UAGXPADKK@Z
	DD	FLAT:?BroadcastUser@Co4DyuchiNET@@UAGXPADKK@Z
	DD	FLAT:?GetConnectedServerNum@Co4DyuchiNET@@UAGKXZ
	DD	FLAT:?GetConnectedUserNum@Co4DyuchiNET@@UAGKXZ
	DD	FLAT:?GetBindedPortServerSide@Co4DyuchiNET@@UAGGXZ
	DD	FLAT:?GetBindedPortUserSide@Co4DyuchiNET@@UAGGXZ
	DD	FLAT:?ConnectToServerWithUserSide@Co4DyuchiNET@@UAGHPADGP6GXKPAX@ZP6GX1@Z1@Z
	DD	FLAT:?ConnectToServerWithServerSide@Co4DyuchiNET@@UAGHPADGP6GXKPAX@ZP6GX1@Z1@Z
	DD	FLAT:?StartServerWithUserSide@Co4DyuchiNET@@UAGHPADG@Z
	DD	FLAT:?StartServerWithServerSide@Co4DyuchiNET@@UAGHPADG@Z
	DD	FLAT:?GetCustomEventHandle@Co4DyuchiNET@@UAGPAXK@Z
	DD	FLAT:?GetMyAddress@Co4DyuchiNET@@UAGHPADK@Z
CONST	ENDS
;	COMDAT ??_7I4DyuchiNET@@6B@
CONST	SEGMENT
??_7I4DyuchiNET@@6B@ DD FLAT:??_R4I4DyuchiNET@@6B@	; I4DyuchiNET::`vftable'
	DD	FLAT:__purecall
	DD	FLAT:__purecall
	DD	FLAT:__purecall
	DD	FLAT:__purecall
	DD	FLAT:__purecall
	DD	FLAT:__purecall
	DD	FLAT:__purecall
	DD	FLAT:__purecall
	DD	FLAT:__purecall
	DD	FLAT:__purecall
	DD	FLAT:__purecall
	DD	FLAT:__purecall
	DD	FLAT:__purecall
	DD	FLAT:__purecall
	DD	FLAT:__purecall
	DD	FLAT:__purecall
	DD	FLAT:__purecall
	DD	FLAT:__purecall
	DD	FLAT:__purecall
	DD	FLAT:__purecall
	DD	FLAT:__purecall
	DD	FLAT:__purecall
	DD	FLAT:__purecall
	DD	FLAT:__purecall
	DD	FLAT:__purecall
	DD	FLAT:__purecall
	DD	FLAT:__purecall
	DD	FLAT:__purecall
	DD	FLAT:__purecall
	DD	FLAT:__purecall
	DD	FLAT:__purecall
	DD	FLAT:__purecall
	DD	FLAT:__purecall
	DD	FLAT:__purecall
	DD	FLAT:__purecall
	DD	FLAT:__purecall
	DD	FLAT:__purecall
	DD	FLAT:__purecall
CONST	ENDS
xdata$x	SEGMENT
__unwindtable$?CreateNetwork@Co4DyuchiNET@@UAGHPAUDESC_NETWORK@@KKP6GKPAX@Z@Z DD 0ffffffffH
	DD	FLAT:__unwindfunclet$?CreateNetwork@Co4DyuchiNET@@UAGHPAUDESC_NETWORK@@KKP6GKPAX@Z@Z$0
	DD	0ffffffffH
	DD	FLAT:__unwindfunclet$?CreateNetwork@Co4DyuchiNET@@UAGHPAUDESC_NETWORK@@KKP6GKPAX@Z@Z$1
	DD	0ffffffffH
	DD	FLAT:__unwindfunclet$?CreateNetwork@Co4DyuchiNET@@UAGHPAUDESC_NETWORK@@KKP6GKPAX@Z@Z$2
__ehfuncinfo$?CreateNetwork@Co4DyuchiNET@@UAGHPAUDESC_NETWORK@@KKP6GKPAX@Z@Z DD 019930522H
	DD	03H
	DD	FLAT:__unwindtable$?CreateNetwork@Co4DyuchiNET@@UAGHPAUDESC_NETWORK@@KKP6GKPAX@Z@Z
	DD	2 DUP(00H)
	DD	2 DUP(00H)
	DD	00H
	DD	01H
xdata$x	ENDS
; Function compile flags: /Odspy
_TEXT	SEGMENT
_this$ = -8						; size = 4
_i$1 = -4						; size = 4
_desc$ = 8						; size = 4
?CheckParameter@Co4DyuchiNET@@AAEHPAUDESC_NETWORK@@@Z PROC ; Co4DyuchiNET::CheckParameter
; _this$ = ecx
; File e:\github\mso_code\4dyuchinet_latest\conetwork.cpp
; Line 512
  00000	55		 push	 ebp
  00001	8b ec		 mov	 ebp, esp
  00003	51		 push	 ecx
  00004	51		 push	 ecx
  00005	89 4d f8	 mov	 DWORD PTR _this$[ebp], ecx
; Line 513
  00008	83 7d 08 00	 cmp	 DWORD PTR _desc$[ebp], 0
  0000c	75 12		 jne	 SHORT $LN26@CheckParam
; Line 515
  0000e	68 00 00 00 00	 push	 OFFSET $SG92705
  00013	e8 00 00 00 00	 call	 ?ErrorMsg@@YAXPAD@Z	; ErrorMsg
  00018	59		 pop	 ecx
; Line 516
  00019	33 c0		 xor	 eax, eax
  0001b	e9 f3 01 00 00	 jmp	 $LN27@CheckParam
$LN26@CheckParam:
; Line 518
  00020	8b 45 08	 mov	 eax, DWORD PTR _desc$[ebp]
  00023	83 38 00	 cmp	 DWORD PTR [eax], 0
  00026	0f 84 a1 00 00
	00		 je	 $LN25@CheckParam
; Line 520
  0002c	8b 45 08	 mov	 eax, DWORD PTR _desc$[ebp]
  0002f	81 38 a0 0f 00
	00		 cmp	 DWORD PTR [eax], 4000	; 00000fa0H
  00035	76 12		 jbe	 SHORT $LN24@CheckParam
; Line 522
  00037	68 00 00 00 00	 push	 OFFSET $SG92708
  0003c	e8 00 00 00 00	 call	 ?ErrorMsg@@YAXPAD@Z	; ErrorMsg
  00041	59		 pop	 ecx
; Line 523
  00042	33 c0		 xor	 eax, eax
  00044	e9 ca 01 00 00	 jmp	 $LN27@CheckParam
$LN24@CheckParam:
; Line 526
  00049	8b 45 08	 mov	 eax, DWORD PTR _desc$[ebp]
  0004c	83 78 08 00	 cmp	 DWORD PTR [eax+8], 0
  00050	75 12		 jne	 SHORT $LN23@CheckParam
; Line 528
  00052	68 00 00 00 00	 push	 OFFSET $SG92710
  00057	e8 00 00 00 00	 call	 ?ErrorMsg@@YAXPAD@Z	; ErrorMsg
  0005c	59		 pop	 ecx
; Line 529
  0005d	33 c0		 xor	 eax, eax
  0005f	e9 af 01 00 00	 jmp	 $LN27@CheckParam
$LN23@CheckParam:
; Line 531
  00064	8b 45 08	 mov	 eax, DWORD PTR _desc$[ebp]
  00067	83 78 10 00	 cmp	 DWORD PTR [eax+16], 0
  0006b	75 12		 jne	 SHORT $LN22@CheckParam
; Line 533
  0006d	68 00 00 00 00	 push	 OFFSET $SG92712
  00072	e8 00 00 00 00	 call	 ?ErrorMsg@@YAXPAD@Z	; ErrorMsg
  00077	59		 pop	 ecx
; Line 534
  00078	33 c0		 xor	 eax, eax
  0007a	e9 94 01 00 00	 jmp	 $LN27@CheckParam
$LN22@CheckParam:
; Line 536
  0007f	8b 45 08	 mov	 eax, DWORD PTR _desc$[ebp]
  00082	81 78 24 ff ff
	00 00		 cmp	 DWORD PTR [eax+36], 65535 ; 0000ffffH
  00089	77 09		 ja	 SHORT $LN20@CheckParam
  0008b	8b 45 08	 mov	 eax, DWORD PTR _desc$[ebp]
  0008e	83 78 24 00	 cmp	 DWORD PTR [eax+36], 0
  00092	75 12		 jne	 SHORT $LN21@CheckParam
$LN20@CheckParam:
; Line 538
  00094	68 00 00 00 00	 push	 OFFSET $SG92715
  00099	e8 00 00 00 00	 call	 ?ErrorMsg@@YAXPAD@Z	; ErrorMsg
  0009e	59		 pop	 ecx
; Line 539
  0009f	33 c0		 xor	 eax, eax
  000a1	e9 6d 01 00 00	 jmp	 $LN27@CheckParam
$LN21@CheckParam:
; Line 541
  000a6	8b 45 08	 mov	 eax, DWORD PTR _desc$[ebp]
  000a9	81 78 2c 00 d0
	07 00		 cmp	 DWORD PTR [eax+44], 512000 ; 0007d000H
  000b0	77 09		 ja	 SHORT $LN18@CheckParam
  000b2	8b 45 08	 mov	 eax, DWORD PTR _desc$[ebp]
  000b5	83 78 2c 00	 cmp	 DWORD PTR [eax+44], 0
  000b9	75 12		 jne	 SHORT $LN25@CheckParam
$LN18@CheckParam:
; Line 543
  000bb	68 00 00 00 00	 push	 OFFSET $SG92718
  000c0	e8 00 00 00 00	 call	 ?ErrorMsg@@YAXPAD@Z	; ErrorMsg
  000c5	59		 pop	 ecx
; Line 544
  000c6	33 c0		 xor	 eax, eax
  000c8	e9 46 01 00 00	 jmp	 $LN27@CheckParam
$LN25@CheckParam:
; Line 547
  000cd	8b 45 08	 mov	 eax, DWORD PTR _desc$[ebp]
  000d0	83 78 04 00	 cmp	 DWORD PTR [eax+4], 0
  000d4	0f 84 a2 00 00
	00		 je	 $LN17@CheckParam
; Line 549
  000da	8b 45 08	 mov	 eax, DWORD PTR _desc$[ebp]
  000dd	81 78 04 a0 0f
	00 00		 cmp	 DWORD PTR [eax+4], 4000	; 00000fa0H
  000e4	76 12		 jbe	 SHORT $LN16@CheckParam
; Line 551
  000e6	68 00 00 00 00	 push	 OFFSET $SG92721
  000eb	e8 00 00 00 00	 call	 ?ErrorMsg@@YAXPAD@Z	; ErrorMsg
  000f0	59		 pop	 ecx
; Line 552
  000f1	33 c0		 xor	 eax, eax
  000f3	e9 1b 01 00 00	 jmp	 $LN27@CheckParam
$LN16@CheckParam:
; Line 554
  000f8	8b 45 08	 mov	 eax, DWORD PTR _desc$[ebp]
  000fb	83 78 0c 00	 cmp	 DWORD PTR [eax+12], 0
  000ff	75 12		 jne	 SHORT $LN15@CheckParam
; Line 556
  00101	68 00 00 00 00	 push	 OFFSET $SG92723
  00106	e8 00 00 00 00	 call	 ?ErrorMsg@@YAXPAD@Z	; ErrorMsg
  0010b	59		 pop	 ecx
; Line 557
  0010c	33 c0		 xor	 eax, eax
  0010e	e9 00 01 00 00	 jmp	 $LN27@CheckParam
$LN15@CheckParam:
; Line 559
  00113	8b 45 08	 mov	 eax, DWORD PTR _desc$[ebp]
  00116	83 78 14 00	 cmp	 DWORD PTR [eax+20], 0
  0011a	75 12		 jne	 SHORT $LN14@CheckParam
; Line 561
  0011c	68 00 00 00 00	 push	 OFFSET $SG92725
  00121	e8 00 00 00 00	 call	 ?ErrorMsg@@YAXPAD@Z	; ErrorMsg
  00126	59		 pop	 ecx
; Line 562
  00127	33 c0		 xor	 eax, eax
  00129	e9 e5 00 00 00	 jmp	 $LN27@CheckParam
$LN14@CheckParam:
; Line 564
  0012e	8b 45 08	 mov	 eax, DWORD PTR _desc$[ebp]
  00131	81 78 20 ff ff
	00 00		 cmp	 DWORD PTR [eax+32], 65535 ; 0000ffffH
  00138	77 09		 ja	 SHORT $LN12@CheckParam
  0013a	8b 45 08	 mov	 eax, DWORD PTR _desc$[ebp]
  0013d	83 78 20 00	 cmp	 DWORD PTR [eax+32], 0
  00141	75 12		 jne	 SHORT $LN13@CheckParam
$LN12@CheckParam:
; Line 566
  00143	68 00 00 00 00	 push	 OFFSET $SG92728
  00148	e8 00 00 00 00	 call	 ?ErrorMsg@@YAXPAD@Z	; ErrorMsg
  0014d	59		 pop	 ecx
; Line 567
  0014e	33 c0		 xor	 eax, eax
  00150	e9 be 00 00 00	 jmp	 $LN27@CheckParam
$LN13@CheckParam:
; Line 569
  00155	8b 45 08	 mov	 eax, DWORD PTR _desc$[ebp]
  00158	81 78 28 00 40
	1f 00		 cmp	 DWORD PTR [eax+40], 2048000 ; 001f4000H
  0015f	77 09		 ja	 SHORT $LN10@CheckParam
  00161	8b 45 08	 mov	 eax, DWORD PTR _desc$[ebp]
  00164	83 78 28 00	 cmp	 DWORD PTR [eax+40], 0
  00168	75 12		 jne	 SHORT $LN17@CheckParam
$LN10@CheckParam:
; Line 571
  0016a	68 00 00 00 00	 push	 OFFSET $SG92731
  0016f	e8 00 00 00 00	 call	 ?ErrorMsg@@YAXPAD@Z	; ErrorMsg
  00174	59		 pop	 ecx
; Line 572
  00175	33 c0		 xor	 eax, eax
  00177	e9 97 00 00 00	 jmp	 $LN27@CheckParam
$LN17@CheckParam:
; Line 576
  0017c	8b 45 08	 mov	 eax, DWORD PTR _desc$[ebp]
  0017f	83 78 34 00	 cmp	 DWORD PTR [eax+52], 0
  00183	74 0c		 je	 SHORT $LN8@CheckParam
  00185	8b 45 08	 mov	 eax, DWORD PTR _desc$[ebp]
  00188	81 78 34 cc cc
	cc cc		 cmp	 DWORD PTR [eax+52], -858993460 ; ccccccccH
  0018f	75 0a		 jne	 SHORT $LN9@CheckParam
$LN8@CheckParam:
; Line 577
  00191	8b 45 08	 mov	 eax, DWORD PTR _desc$[ebp]
  00194	c7 40 34 01 00
	00 00		 mov	 DWORD PTR [eax+52], 1
$LN9@CheckParam:
; Line 579
  0019b	8b 45 08	 mov	 eax, DWORD PTR _desc$[ebp]
  0019e	81 78 30 00 80
	38 01		 cmp	 DWORD PTR [eax+48], 20480000 ; 01388000H
  001a5	77 09		 ja	 SHORT $LN6@CheckParam
  001a7	8b 45 08	 mov	 eax, DWORD PTR _desc$[ebp]
  001aa	83 78 30 00	 cmp	 DWORD PTR [eax+48], 0
  001ae	75 0f		 jne	 SHORT $LN7@CheckParam
$LN6@CheckParam:
; Line 581
  001b0	68 00 00 00 00	 push	 OFFSET $SG92736
  001b5	e8 00 00 00 00	 call	 ?ErrorMsg@@YAXPAD@Z	; ErrorMsg
  001ba	59		 pop	 ecx
; Line 582
  001bb	33 c0		 xor	 eax, eax
  001bd	eb 54		 jmp	 SHORT $LN27@CheckParam
$LN7@CheckParam:
; Line 584
  001bf	8b 45 08	 mov	 eax, DWORD PTR _desc$[ebp]
  001c2	83 78 3c 3b	 cmp	 DWORD PTR [eax+60], 59	; 0000003bH
  001c6	76 0f		 jbe	 SHORT $LN5@CheckParam
; Line 586
  001c8	68 00 00 00 00	 push	 OFFSET $SG92738
  001cd	e8 00 00 00 00	 call	 ?ErrorMsg@@YAXPAD@Z	; ErrorMsg
  001d2	59		 pop	 ecx
; Line 587
  001d3	33 c0		 xor	 eax, eax
  001d5	eb 3c		 jmp	 SHORT $LN27@CheckParam
$LN5@CheckParam:
; Line 589
  001d7	83 65 fc 00	 and	 DWORD PTR _i$1[ebp], 0
  001db	eb 07		 jmp	 SHORT $LN4@CheckParam
$LN3@CheckParam:
  001dd	8b 45 fc	 mov	 eax, DWORD PTR _i$1[ebp]
  001e0	40		 inc	 eax
  001e1	89 45 fc	 mov	 DWORD PTR _i$1[ebp], eax
$LN4@CheckParam:
  001e4	8b 45 08	 mov	 eax, DWORD PTR _desc$[ebp]
  001e7	8b 4d fc	 mov	 ecx, DWORD PTR _i$1[ebp]
  001ea	3b 48 3c	 cmp	 ecx, DWORD PTR [eax+60]
  001ed	73 21		 jae	 SHORT $LN2@CheckParam
; Line 591
  001ef	8b 45 08	 mov	 eax, DWORD PTR _desc$[ebp]
  001f2	8b 40 40	 mov	 eax, DWORD PTR [eax+64]
  001f5	8b 4d fc	 mov	 ecx, DWORD PTR _i$1[ebp]
  001f8	83 7c c8 04 00	 cmp	 DWORD PTR [eax+ecx*8+4], 0
  001fd	75 0f		 jne	 SHORT $LN1@CheckParam
; Line 593
  001ff	68 00 00 00 00	 push	 OFFSET $SG92744
  00204	e8 00 00 00 00	 call	 ?ErrorMsg@@YAXPAD@Z	; ErrorMsg
  00209	59		 pop	 ecx
; Line 594
  0020a	33 c0		 xor	 eax, eax
  0020c	eb 05		 jmp	 SHORT $LN27@CheckParam
$LN1@CheckParam:
; Line 596
  0020e	eb cd		 jmp	 SHORT $LN3@CheckParam
$LN2@CheckParam:
; Line 597
  00210	33 c0		 xor	 eax, eax
  00212	40		 inc	 eax
$LN27@CheckParam:
; Line 598
  00213	8b e5		 mov	 esp, ebp
  00215	5d		 pop	 ebp
  00216	c2 04 00	 ret	 4
?CheckParameter@Co4DyuchiNET@@AAEHPAUDESC_NETWORK@@@Z ENDP ; Co4DyuchiNET::CheckParameter
_TEXT	ENDS
; Function compile flags: /Odspy
_TEXT	SEGMENT
_this$ = -52						; size = 4
tv154 = -48						; size = 4
$T1 = -44						; size = 4
tv146 = -40						; size = 4
$T2 = -36						; size = 4
tv138 = -32						; size = 4
$T3 = -28						; size = 4
tv130 = -24						; size = 4
$T4 = -20						; size = 4
$T5 = -16						; size = 4
$T6 = -12						; size = 4
$T7 = -8						; size = 4
$T8 = -4						; size = 4
?DestroyNetwork@Co4DyuchiNET@@AAEXXZ PROC		; Co4DyuchiNET::DestroyNetwork
; _this$ = ecx
; File e:\github\mso_code\4dyuchinet_latest\conetwork.cpp
; Line 426
  00000	55		 push	 ebp
  00001	8b ec		 mov	 ebp, esp
  00003	83 ec 34	 sub	 esp, 52			; 00000034H
  00006	89 4d cc	 mov	 DWORD PTR _this$[ebp], ecx
; Line 428
  00009	68 00 00 00 00	 push	 OFFSET $SG92646
  0000e	e8 00 00 00 00	 call	 _printf
  00013	59		 pop	 ecx
; Line 429
  00014	e8 00 00 00 00	 call	 ?EndPreConnectPool@@YAXXZ ; EndPreConnectPool
; Line 430
  00019	68 00 00 00 00	 push	 OFFSET $SG92647
  0001e	e8 00 00 00 00	 call	 _printf
  00023	59		 pop	 ecx
; Line 432
  00024	68 00 00 00 00	 push	 OFFSET $SG92648
  00029	e8 00 00 00 00	 call	 _printf
  0002e	59		 pop	 ecx
; Line 433
  0002f	83 3d 00 00 00
	00 00		 cmp	 DWORD PTR ?g_pNetworkForUser@@3PAVCNetwork@@A, 0 ; g_pNetworkForUser
  00036	74 0b		 je	 SHORT $LN7@DestroyNet
; Line 434
  00038	8b 0d 00 00 00
	00		 mov	 ecx, DWORD PTR ?g_pNetworkForUser@@3PAVCNetwork@@A ; g_pNetworkForUser
  0003e	e8 00 00 00 00	 call	 ?ReleaseListenSocket@CNetwork@@QAEXXZ ; CNetwork::ReleaseListenSocket
$LN7@DestroyNet:
; Line 435
  00043	68 00 00 00 00	 push	 OFFSET $SG92650
  00048	e8 00 00 00 00	 call	 _printf
  0004d	59		 pop	 ecx
; Line 437
  0004e	68 00 00 00 00	 push	 OFFSET $SG92651
  00053	e8 00 00 00 00	 call	 _printf
  00058	59		 pop	 ecx
; Line 438
  00059	83 3d 00 00 00
	00 00		 cmp	 DWORD PTR ?g_pNetworkForServer@@3PAVCNetwork@@A, 0 ; g_pNetworkForServer
  00060	74 0b		 je	 SHORT $LN6@DestroyNet
; Line 439
  00062	8b 0d 00 00 00
	00		 mov	 ecx, DWORD PTR ?g_pNetworkForServer@@3PAVCNetwork@@A ; g_pNetworkForServer
  00068	e8 00 00 00 00	 call	 ?ReleaseListenSocket@CNetwork@@QAEXXZ ; CNetwork::ReleaseListenSocket
$LN6@DestroyNet:
; Line 440
  0006d	68 00 00 00 00	 push	 OFFSET $SG92653
  00072	e8 00 00 00 00	 call	 _printf
  00077	59		 pop	 ecx
; Line 442
  00078	68 00 00 00 00	 push	 OFFSET $SG92654
  0007d	e8 00 00 00 00	 call	 _printf
  00082	59		 pop	 ecx
; Line 443
  00083	e8 00 00 00 00	 call	 ?CloseComplitionIO@@YAXXZ ; CloseComplitionIO
; Line 444
  00088	68 00 00 00 00	 push	 OFFSET $SG92655
  0008d	e8 00 00 00 00	 call	 _printf
  00092	59		 pop	 ecx
; Line 446
  00093	68 00 00 00 00	 push	 OFFSET $SG92656
  00098	e8 00 00 00 00	 call	 _printf
  0009d	59		 pop	 ecx
; Line 447
  0009e	e8 00 00 00 00	 call	 ?EndMainThread@@YAXXZ	; EndMainThread
; Line 448
  000a3	68 00 00 00 00	 push	 OFFSET $SG92657
  000a8	e8 00 00 00 00	 call	 _printf
  000ad	59		 pop	 ecx
; Line 450
  000ae	68 00 00 00 00	 push	 OFFSET $SG92658
  000b3	e8 00 00 00 00	 call	 _printf
  000b8	59		 pop	 ecx
; Line 451
  000b9	e8 00 00 00 00	 call	 ?EndSwitchQueThread@@YAXXZ ; EndSwitchQueThread
; Line 452
  000be	68 00 00 00 00	 push	 OFFSET $SG92659
  000c3	e8 00 00 00 00	 call	 _printf
  000c8	59		 pop	 ecx
; Line 454
  000c9	68 00 00 00 00	 push	 OFFSET $SG92660
  000ce	e8 00 00 00 00	 call	 _printf
  000d3	59		 pop	 ecx
; Line 455
  000d4	e8 00 00 00 00	 call	 ?RemoveAllTimer@@YAXXZ	; RemoveAllTimer
; Line 456
  000d9	68 00 00 00 00	 push	 OFFSET $SG92661
  000de	e8 00 00 00 00	 call	 _printf
  000e3	59		 pop	 ecx
; Line 458
  000e4	83 3d 00 00 00
	00 00		 cmp	 DWORD PTR ?g_pICode@@3PAUICode@@A, 0 ; g_pICode
  000eb	74 2d		 je	 SHORT $LN5@DestroyNet
; Line 460
  000ed	68 00 00 00 00	 push	 OFFSET $SG92663
  000f2	e8 00 00 00 00	 call	 _printf
  000f7	59		 pop	 ecx
; Line 461
  000f8	a1 00 00 00 00	 mov	 eax, DWORD PTR ?g_pICode@@3PAUICode@@A ; g_pICode
  000fd	8b 00		 mov	 eax, DWORD PTR [eax]
  000ff	ff 35 00 00 00
	00		 push	 DWORD PTR ?g_pICode@@3PAUICode@@A ; g_pICode
  00105	ff 50 08	 call	 DWORD PTR [eax+8]
; Line 462
  00108	83 25 00 00 00
	00 00		 and	 DWORD PTR ?g_pICode@@3PAUICode@@A, 0 ; g_pICode
; Line 463
  0010f	68 00 00 00 00	 push	 OFFSET $SG92664
  00114	e8 00 00 00 00	 call	 _printf
  00119	59		 pop	 ecx
$LN5@DestroyNet:
; Line 466
  0011a	83 3d 00 00 00
	00 00		 cmp	 DWORD PTR ?g_pNetworkForUser@@3PAVCNetwork@@A, 0 ; g_pNetworkForUser
  00121	74 56		 je	 SHORT $LN4@DestroyNet
; Line 468
  00123	68 00 00 00 00	 push	 OFFSET $SG92666
  00128	e8 00 00 00 00	 call	 _printf
  0012d	59		 pop	 ecx
; Line 469
  0012e	a1 00 00 00 00	 mov	 eax, DWORD PTR ?g_pNetworkForUser@@3PAVCNetwork@@A ; g_pNetworkForUser
  00133	89 45 ec	 mov	 DWORD PTR $T4[ebp], eax
  00136	8b 45 ec	 mov	 eax, DWORD PTR $T4[ebp]
  00139	89 45 fc	 mov	 DWORD PTR $T8[ebp], eax
  0013c	83 7d fc 00	 cmp	 DWORD PTR $T8[ebp], 0
  00140	74 21		 je	 SHORT $LN10@DestroyNet
  00142	8b 4d fc	 mov	 ecx, DWORD PTR $T8[ebp]
  00145	e8 00 00 00 00	 call	 ??1CNetwork@@QAE@XZ	; CNetwork::~CNetwork
  0014a	33 c0		 xor	 eax, eax
  0014c	40		 inc	 eax
  0014d	83 e0 01	 and	 eax, 1
  00150	74 09		 je	 SHORT $LN19@DestroyNet
  00152	ff 75 fc	 push	 DWORD PTR $T8[ebp]
  00155	e8 00 00 00 00	 call	 ??3@YAXPAX@Z		; operator delete
  0015a	59		 pop	 ecx
$LN19@DestroyNet:
  0015b	8b 45 fc	 mov	 eax, DWORD PTR $T8[ebp]
  0015e	89 45 e8	 mov	 DWORD PTR tv130[ebp], eax
  00161	eb 04		 jmp	 SHORT $LN11@DestroyNet
$LN10@DestroyNet:
  00163	83 65 e8 00	 and	 DWORD PTR tv130[ebp], 0
$LN11@DestroyNet:
; Line 470
  00167	83 25 00 00 00
	00 00		 and	 DWORD PTR ?g_pNetworkForUser@@3PAVCNetwork@@A, 0 ; g_pNetworkForUser
; Line 471
  0016e	68 00 00 00 00	 push	 OFFSET $SG92669
  00173	e8 00 00 00 00	 call	 _printf
  00178	59		 pop	 ecx
$LN4@DestroyNet:
; Line 474
  00179	83 3d 00 00 00
	00 00		 cmp	 DWORD PTR ?g_pNetworkForServer@@3PAVCNetwork@@A, 0 ; g_pNetworkForServer
  00180	74 56		 je	 SHORT $LN3@DestroyNet
; Line 476
  00182	68 00 00 00 00	 push	 OFFSET $SG92671
  00187	e8 00 00 00 00	 call	 _printf
  0018c	59		 pop	 ecx
; Line 477
  0018d	a1 00 00 00 00	 mov	 eax, DWORD PTR ?g_pNetworkForServer@@3PAVCNetwork@@A ; g_pNetworkForServer
  00192	89 45 e4	 mov	 DWORD PTR $T3[ebp], eax
  00195	8b 45 e4	 mov	 eax, DWORD PTR $T3[ebp]
  00198	89 45 f8	 mov	 DWORD PTR $T7[ebp], eax
  0019b	83 7d f8 00	 cmp	 DWORD PTR $T7[ebp], 0
  0019f	74 21		 je	 SHORT $LN12@DestroyNet
  001a1	8b 4d f8	 mov	 ecx, DWORD PTR $T7[ebp]
  001a4	e8 00 00 00 00	 call	 ??1CNetwork@@QAE@XZ	; CNetwork::~CNetwork
  001a9	33 c0		 xor	 eax, eax
  001ab	40		 inc	 eax
  001ac	83 e0 01	 and	 eax, 1
  001af	74 09		 je	 SHORT $LN22@DestroyNet
  001b1	ff 75 f8	 push	 DWORD PTR $T7[ebp]
  001b4	e8 00 00 00 00	 call	 ??3@YAXPAX@Z		; operator delete
  001b9	59		 pop	 ecx
$LN22@DestroyNet:
  001ba	8b 45 f8	 mov	 eax, DWORD PTR $T7[ebp]
  001bd	89 45 e0	 mov	 DWORD PTR tv138[ebp], eax
  001c0	eb 04		 jmp	 SHORT $LN13@DestroyNet
$LN12@DestroyNet:
  001c2	83 65 e0 00	 and	 DWORD PTR tv138[ebp], 0
$LN13@DestroyNet:
; Line 478
  001c6	83 25 00 00 00
	00 00		 and	 DWORD PTR ?g_pNetworkForServer@@3PAVCNetwork@@A, 0 ; g_pNetworkForServer
; Line 479
  001cd	68 00 00 00 00	 push	 OFFSET $SG92674
  001d2	e8 00 00 00 00	 call	 _printf
  001d7	59		 pop	 ecx
$LN3@DestroyNet:
; Line 482
  001d8	83 3d 00 00 00
	00 00		 cmp	 DWORD PTR ?g_pQueManager@@3PAVCQueManager@@A, 0 ; g_pQueManager
  001df	74 56		 je	 SHORT $LN2@DestroyNet
; Line 485
  001e1	68 00 00 00 00	 push	 OFFSET $SG92676
  001e6	e8 00 00 00 00	 call	 _printf
  001eb	59		 pop	 ecx
; Line 486
  001ec	a1 00 00 00 00	 mov	 eax, DWORD PTR ?g_pQueManager@@3PAVCQueManager@@A ; g_pQueManager
  001f1	89 45 dc	 mov	 DWORD PTR $T2[ebp], eax
  001f4	8b 45 dc	 mov	 eax, DWORD PTR $T2[ebp]
  001f7	89 45 f4	 mov	 DWORD PTR $T6[ebp], eax
  001fa	83 7d f4 00	 cmp	 DWORD PTR $T6[ebp], 0
  001fe	74 21		 je	 SHORT $LN14@DestroyNet
  00200	8b 4d f4	 mov	 ecx, DWORD PTR $T6[ebp]
  00203	e8 00 00 00 00	 call	 ??1CQueManager@@QAE@XZ	; CQueManager::~CQueManager
  00208	33 c0		 xor	 eax, eax
  0020a	40		 inc	 eax
  0020b	83 e0 01	 and	 eax, 1
  0020e	74 09		 je	 SHORT $LN25@DestroyNet
  00210	ff 75 f4	 push	 DWORD PTR $T6[ebp]
  00213	e8 00 00 00 00	 call	 ??3@YAXPAX@Z		; operator delete
  00218	59		 pop	 ecx
$LN25@DestroyNet:
  00219	8b 45 f4	 mov	 eax, DWORD PTR $T6[ebp]
  0021c	89 45 d8	 mov	 DWORD PTR tv146[ebp], eax
  0021f	eb 04		 jmp	 SHORT $LN15@DestroyNet
$LN14@DestroyNet:
  00221	83 65 d8 00	 and	 DWORD PTR tv146[ebp], 0
$LN15@DestroyNet:
; Line 487
  00225	83 25 00 00 00
	00 00		 and	 DWORD PTR ?g_pQueManager@@3PAVCQueManager@@A, 0 ; g_pQueManager
; Line 488
  0022c	68 00 00 00 00	 push	 OFFSET $SG92679
  00231	e8 00 00 00 00	 call	 _printf
  00236	59		 pop	 ecx
$LN2@DestroyNet:
; Line 490
  00237	83 3d 00 00 00
	00 00		 cmp	 DWORD PTR ?g_pLogManager@@3PAVCLogManager@@A, 0 ; g_pLogManager
  0023e	74 56		 je	 SHORT $LN1@DestroyNet
; Line 492
  00240	68 00 00 00 00	 push	 OFFSET $SG92681
  00245	e8 00 00 00 00	 call	 _printf
  0024a	59		 pop	 ecx
; Line 493
  0024b	a1 00 00 00 00	 mov	 eax, DWORD PTR ?g_pLogManager@@3PAVCLogManager@@A ; g_pLogManager
  00250	89 45 d4	 mov	 DWORD PTR $T1[ebp], eax
  00253	8b 45 d4	 mov	 eax, DWORD PTR $T1[ebp]
  00256	89 45 f0	 mov	 DWORD PTR $T5[ebp], eax
  00259	83 7d f0 00	 cmp	 DWORD PTR $T5[ebp], 0
  0025d	74 21		 je	 SHORT $LN16@DestroyNet
  0025f	8b 4d f0	 mov	 ecx, DWORD PTR $T5[ebp]
  00262	e8 00 00 00 00	 call	 ??1CLogManager@@QAE@XZ	; CLogManager::~CLogManager
  00267	33 c0		 xor	 eax, eax
  00269	40		 inc	 eax
  0026a	83 e0 01	 and	 eax, 1
  0026d	74 09		 je	 SHORT $LN28@DestroyNet
  0026f	ff 75 f0	 push	 DWORD PTR $T5[ebp]
  00272	e8 00 00 00 00	 call	 ??3@YAXPAX@Z		; operator delete
  00277	59		 pop	 ecx
$LN28@DestroyNet:
  00278	8b 45 f0	 mov	 eax, DWORD PTR $T5[ebp]
  0027b	89 45 d0	 mov	 DWORD PTR tv154[ebp], eax
  0027e	eb 04		 jmp	 SHORT $LN17@DestroyNet
$LN16@DestroyNet:
  00280	83 65 d0 00	 and	 DWORD PTR tv154[ebp], 0
$LN17@DestroyNet:
; Line 494
  00284	83 25 00 00 00
	00 00		 and	 DWORD PTR ?g_pLogManager@@3PAVCLogManager@@A, 0 ; g_pLogManager
; Line 495
  0028b	68 00 00 00 00	 push	 OFFSET $SG92684
  00290	e8 00 00 00 00	 call	 _printf
  00295	59		 pop	 ecx
$LN1@DestroyNet:
; Line 498
  00296	e8 00 00 00 00	 call	 ?CleanSocket@@YAXXZ	; CleanSocket
; Line 499
  0029b	8b e5		 mov	 esp, ebp
  0029d	5d		 pop	 ebp
  0029e	c3		 ret	 0
?DestroyNetwork@Co4DyuchiNET@@AAEXXZ ENDP		; Co4DyuchiNET::DestroyNetwork
_TEXT	ENDS
; Function compile flags: /Odspy
_TEXT	SEGMENT
_this$ = -4						; size = 4
??1Co4DyuchiNET@@QAE@XZ PROC				; Co4DyuchiNET::~Co4DyuchiNET
; _this$ = ecx
; File e:\github\mso_code\4dyuchinet_latest\conetwork.cpp
; Line 501
  00000	55		 push	 ebp
  00001	8b ec		 mov	 ebp, esp
  00003	51		 push	 ecx
  00004	89 4d fc	 mov	 DWORD PTR _this$[ebp], ecx
  00007	8b 45 fc	 mov	 eax, DWORD PTR _this$[ebp]
  0000a	c7 00 00 00 00
	00		 mov	 DWORD PTR [eax], OFFSET ??_7Co4DyuchiNET@@6B@
; Line 502
  00010	8b 4d fc	 mov	 ecx, DWORD PTR _this$[ebp]
  00013	e8 00 00 00 00	 call	 ?DestroyNetwork@Co4DyuchiNET@@AAEXXZ ; Co4DyuchiNET::DestroyNetwork
; Line 509
  00018	8b e5		 mov	 esp, ebp
  0001a	5d		 pop	 ebp
  0001b	c3		 ret	 0
??1Co4DyuchiNET@@QAE@XZ ENDP				; Co4DyuchiNET::~Co4DyuchiNET
_TEXT	ENDS
; Function compile flags: /Odspy
_TEXT	SEGMENT
_this$ = -4						; size = 4
??0Co4DyuchiNET@@QAE@XZ PROC				; Co4DyuchiNET::Co4DyuchiNET
; _this$ = ecx
; File e:\github\mso_code\4dyuchinet_latest\conetwork.cpp
; Line 16
  00000	55		 push	 ebp
  00001	8b ec		 mov	 ebp, esp
  00003	51		 push	 ecx
  00004	89 4d fc	 mov	 DWORD PTR _this$[ebp], ecx
  00007	8b 45 fc	 mov	 eax, DWORD PTR _this$[ebp]
  0000a	c7 00 00 00 00
	00		 mov	 DWORD PTR [eax], OFFSET ??_7I4DyuchiNET@@6B@
  00010	8b 45 fc	 mov	 eax, DWORD PTR _this$[ebp]
  00013	c7 00 00 00 00
	00		 mov	 DWORD PTR [eax], OFFSET ??_7Co4DyuchiNET@@6B@
; Line 18
  00019	8b 45 fc	 mov	 eax, DWORD PTR _this$[ebp]
  0001c	83 60 04 00	 and	 DWORD PTR [eax+4], 0
; Line 19
  00020	8b 45 fc	 mov	 eax, DWORD PTR _this$[ebp]
  00023	8b e5		 mov	 esp, ebp
  00025	5d		 pop	 ebp
  00026	c3		 ret	 0
??0Co4DyuchiNET@@QAE@XZ ENDP				; Co4DyuchiNET::Co4DyuchiNET
_TEXT	ENDS
; Function compile flags: /Odspy
_TEXT	SEGMENT
_lphostent$ = -48					; size = 4
_szHostName$ = -44					; size = 40
__$ArrayPad$ = -4					; size = 4
_this$ = 8						; size = 4
_szOutIP$ = 12						; size = 4
_dwMaxLen$ = 16						; size = 4
?GetMyAddress@Co4DyuchiNET@@UAGHPADK@Z PROC		; Co4DyuchiNET::GetMyAddress
; File e:\github\mso_code\4dyuchinet_latest\conetwork.cpp
; Line 601
  00000	55		 push	 ebp
  00001	8b ec		 mov	 ebp, esp
  00003	83 ec 30	 sub	 esp, 48			; 00000030H
  00006	a1 00 00 00 00	 mov	 eax, DWORD PTR ___security_cookie
  0000b	33 c5		 xor	 eax, ebp
  0000d	89 45 fc	 mov	 DWORD PTR __$ArrayPad$[ebp], eax
  00010	57		 push	 edi
; Line 606
  00011	6a 0a		 push	 10			; 0000000aH
  00013	59		 pop	 ecx
  00014	33 c0		 xor	 eax, eax
  00016	8d 7d d4	 lea	 edi, DWORD PTR _szHostName$[ebp]
  00019	f3 ab		 rep stosd
; Line 608
  0001b	6a 28		 push	 40			; 00000028H
  0001d	8d 45 d4	 lea	 eax, DWORD PTR _szHostName$[ebp]
  00020	50		 push	 eax
  00021	ff 15 00 00 00
	00		 call	 DWORD PTR __imp__gethostname@8
; Line 610
  00027	8d 45 d4	 lea	 eax, DWORD PTR _szHostName$[ebp]
  0002a	50		 push	 eax
  0002b	ff 15 00 00 00
	00		 call	 DWORD PTR __imp__gethostbyname@4
  00031	89 45 d0	 mov	 DWORD PTR _lphostent$[ebp], eax
; Line 611
  00034	6a 04		 push	 4
  00036	58		 pop	 eax
  00037	6b c0 00	 imul	 eax, eax, 0
  0003a	8b 4d d0	 mov	 ecx, DWORD PTR _lphostent$[ebp]
  0003d	8b 49 0c	 mov	 ecx, DWORD PTR [ecx+12]
  00040	8b 04 08	 mov	 eax, DWORD PTR [eax+ecx]
  00043	ff 30		 push	 DWORD PTR [eax]
  00045	ff 15 00 00 00
	00		 call	 DWORD PTR __imp__inet_ntoa@4
  0004b	50		 push	 eax
  0004c	68 00 00 00 00	 push	 OFFSET $SG92753
  00051	ff 75 0c	 push	 DWORD PTR _szOutIP$[ebp]
  00054	ff 15 00 00 00
	00		 call	 DWORD PTR __imp__wsprintfA
  0005a	83 c4 0c	 add	 esp, 12			; 0000000cH
; Line 613
  0005d	33 c0		 xor	 eax, eax
  0005f	40		 inc	 eax
; Line 614
  00060	5f		 pop	 edi
  00061	8b 4d fc	 mov	 ecx, DWORD PTR __$ArrayPad$[ebp]
  00064	33 cd		 xor	 ecx, ebp
  00066	e8 00 00 00 00	 call	 @__security_check_cookie@4
  0006b	8b e5		 mov	 esp, ebp
  0006d	5d		 pop	 ebp
  0006e	c2 0c 00	 ret	 12			; 0000000cH
?GetMyAddress@Co4DyuchiNET@@UAGHPADK@Z ENDP		; Co4DyuchiNET::GetMyAddress
_TEXT	ENDS
; Function compile flags: /Odspy
_TEXT	SEGMENT
_this$ = 8						; size = 4
_dwConnectionIndex$ = 12				; size = 4
_pList$ = 16						; size = 4
_flag$ = 20						; size = 4
?SendToUser@Co4DyuchiNET@@UAGHKPAUPACKET_LIST@@K@Z PROC	; Co4DyuchiNET::SendToUser
; File e:\github\mso_code\4dyuchinet_latest\conetwork.cpp
; Line 331
  00000	55		 push	 ebp
  00001	8b ec		 mov	 ebp, esp
; Line 332
  00003	ff 75 14	 push	 DWORD PTR _flag$[ebp]
  00006	ff 75 10	 push	 DWORD PTR _pList$[ebp]
  00009	ff 75 0c	 push	 DWORD PTR _dwConnectionIndex$[ebp]
  0000c	8b 0d 00 00 00
	00		 mov	 ecx, DWORD PTR ?g_pNetworkForUser@@3PAVCNetwork@@A ; g_pNetworkForUser
  00012	e8 00 00 00 00	 call	 ?Send@CNetwork@@QAEHKPAUPACKET_LIST@@K@Z ; CNetwork::Send
; Line 333
  00017	5d		 pop	 ebp
  00018	c2 10 00	 ret	 16			; 00000010H
?SendToUser@Co4DyuchiNET@@UAGHKPAUPACKET_LIST@@K@Z ENDP	; Co4DyuchiNET::SendToUser
_TEXT	ENDS
; Function compile flags: /Odspy
_TEXT	SEGMENT
_this$ = 8						; size = 4
_dwConnectionIndex$ = 12				; size = 4
_pList$ = 16						; size = 4
_flag$ = 20						; size = 4
?SendToServer@Co4DyuchiNET@@UAGHKPAUPACKET_LIST@@K@Z PROC ; Co4DyuchiNET::SendToServer
; File e:\github\mso_code\4dyuchinet_latest\conetwork.cpp
; Line 327
  00000	55		 push	 ebp
  00001	8b ec		 mov	 ebp, esp
; Line 328
  00003	ff 75 14	 push	 DWORD PTR _flag$[ebp]
  00006	ff 75 10	 push	 DWORD PTR _pList$[ebp]
  00009	ff 75 0c	 push	 DWORD PTR _dwConnectionIndex$[ebp]
  0000c	8b 0d 00 00 00
	00		 mov	 ecx, DWORD PTR ?g_pNetworkForServer@@3PAVCNetwork@@A ; g_pNetworkForServer
  00012	e8 00 00 00 00	 call	 ?Send@CNetwork@@QAEHKPAUPACKET_LIST@@K@Z ; CNetwork::Send
; Line 329
  00017	5d		 pop	 ebp
  00018	c2 10 00	 ret	 16			; 00000010H
?SendToServer@Co4DyuchiNET@@UAGHKPAUPACKET_LIST@@K@Z ENDP ; Co4DyuchiNET::SendToServer
_TEXT	ENDS
; Function compile flags: /Odspy
_TEXT	SEGMENT
_this$ = 8						; size = 4
_dwConnectionIndex$ = 12				; size = 4
_pBuf$ = 16						; size = 4
_dwNum$ = 20						; size = 4
_flag$ = 24						; size = 4
?SendToUser@Co4DyuchiNET@@UAGHKPAUINET_BUF@@KK@Z PROC	; Co4DyuchiNET::SendToUser
; File e:\github\mso_code\4dyuchinet_latest\conetwork.cpp
; Line 323
  00000	55		 push	 ebp
  00001	8b ec		 mov	 ebp, esp
; Line 324
  00003	ff 75 18	 push	 DWORD PTR _flag$[ebp]
  00006	ff 75 14	 push	 DWORD PTR _dwNum$[ebp]
  00009	ff 75 10	 push	 DWORD PTR _pBuf$[ebp]
  0000c	ff 75 0c	 push	 DWORD PTR _dwConnectionIndex$[ebp]
  0000f	8b 0d 00 00 00
	00		 mov	 ecx, DWORD PTR ?g_pNetworkForUser@@3PAVCNetwork@@A ; g_pNetworkForUser
  00015	e8 00 00 00 00	 call	 ?Send@CNetwork@@QAEHKPAU_WSABUF@@KK@Z ; CNetwork::Send
; Line 325
  0001a	5d		 pop	 ebp
  0001b	c2 14 00	 ret	 20			; 00000014H
?SendToUser@Co4DyuchiNET@@UAGHKPAUINET_BUF@@KK@Z ENDP	; Co4DyuchiNET::SendToUser
_TEXT	ENDS
; Function compile flags: /Odspy
_TEXT	SEGMENT
_this$ = 8						; size = 4
_dwConnectionIndex$ = 12				; size = 4
_pBuf$ = 16						; size = 4
_dwNum$ = 20						; size = 4
_flag$ = 24						; size = 4
?SendToServer@Co4DyuchiNET@@UAGHKPAUINET_BUF@@KK@Z PROC	; Co4DyuchiNET::SendToServer
; File e:\github\mso_code\4dyuchinet_latest\conetwork.cpp
; Line 319
  00000	55		 push	 ebp
  00001	8b ec		 mov	 ebp, esp
; Line 320
  00003	ff 75 18	 push	 DWORD PTR _flag$[ebp]
  00006	ff 75 14	 push	 DWORD PTR _dwNum$[ebp]
  00009	ff 75 10	 push	 DWORD PTR _pBuf$[ebp]
  0000c	ff 75 0c	 push	 DWORD PTR _dwConnectionIndex$[ebp]
  0000f	8b 0d 00 00 00
	00		 mov	 ecx, DWORD PTR ?g_pNetworkForServer@@3PAVCNetwork@@A ; g_pNetworkForServer
  00015	e8 00 00 00 00	 call	 ?Send@CNetwork@@QAEHKPAU_WSABUF@@KK@Z ; CNetwork::Send
; Line 321
  0001a	5d		 pop	 ebp
  0001b	c2 14 00	 ret	 20			; 00000014H
?SendToServer@Co4DyuchiNET@@UAGHKPAUINET_BUF@@KK@Z ENDP	; Co4DyuchiNET::SendToServer
_TEXT	ENDS
; Function compile flags: /Odspy
_TEXT	SEGMENT
_this$ = 8						; size = 4
_index$ = 12						; size = 4
?GetCustomEventHandle@Co4DyuchiNET@@UAGPAXK@Z PROC	; Co4DyuchiNET::GetCustomEventHandle
; File e:\github\mso_code\4dyuchinet_latest\conetwork.cpp
; Line 413
  00000	55		 push	 ebp
  00001	8b ec		 mov	 ebp, esp
; Line 414
  00003	ff 75 0c	 push	 DWORD PTR _index$[ebp]
  00006	e8 00 00 00 00	 call	 ?GetMainThreadUserDefineEvent@@YAPAXK@Z ; GetMainThreadUserDefineEvent
  0000b	59		 pop	 ecx
; Line 415
  0000c	5d		 pop	 ebp
  0000d	c2 08 00	 ret	 8
?GetCustomEventHandle@Co4DyuchiNET@@UAGPAXK@Z ENDP	; Co4DyuchiNET::GetCustomEventHandle
_TEXT	ENDS
; Function compile flags: /Odspy
_TEXT	SEGMENT
_this$ = 8						; size = 4
_ip$ = 12						; size = 4
_port$ = 16						; size = 2
?StartServerWithServerSide@Co4DyuchiNET@@UAGHPADG@Z PROC ; Co4DyuchiNET::StartServerWithServerSide
; File e:\github\mso_code\4dyuchinet_latest\conetwork.cpp
; Line 408
  00000	55		 push	 ebp
  00001	8b ec		 mov	 ebp, esp
; Line 409
  00003	ff 75 10	 push	 DWORD PTR _port$[ebp]
  00006	ff 75 0c	 push	 DWORD PTR _ip$[ebp]
  00009	8b 0d 00 00 00
	00		 mov	 ecx, DWORD PTR ?g_pNetworkForServer@@3PAVCNetwork@@A ; g_pNetworkForServer
  0000f	e8 00 00 00 00	 call	 ?StartServer@CNetwork@@QAEHPADG@Z ; CNetwork::StartServer
; Line 410
  00014	5d		 pop	 ebp
  00015	c2 0c 00	 ret	 12			; 0000000cH
?StartServerWithServerSide@Co4DyuchiNET@@UAGHPADG@Z ENDP ; Co4DyuchiNET::StartServerWithServerSide
_TEXT	ENDS
; Function compile flags: /Odspy
_TEXT	SEGMENT
_this$ = 8						; size = 4
_ip$ = 12						; size = 4
_port$ = 16						; size = 2
?StartServerWithUserSide@Co4DyuchiNET@@UAGHPADG@Z PROC	; Co4DyuchiNET::StartServerWithUserSide
; File e:\github\mso_code\4dyuchinet_latest\conetwork.cpp
; Line 404
  00000	55		 push	 ebp
  00001	8b ec		 mov	 ebp, esp
; Line 405
  00003	ff 75 10	 push	 DWORD PTR _port$[ebp]
  00006	ff 75 0c	 push	 DWORD PTR _ip$[ebp]
  00009	8b 0d 00 00 00
	00		 mov	 ecx, DWORD PTR ?g_pNetworkForUser@@3PAVCNetwork@@A ; g_pNetworkForUser
  0000f	e8 00 00 00 00	 call	 ?StartServer@CNetwork@@QAEHPADG@Z ; CNetwork::StartServer
; Line 406
  00014	5d		 pop	 ebp
  00015	c2 0c 00	 ret	 12			; 0000000cH
?StartServerWithUserSide@Co4DyuchiNET@@UAGHPADG@Z ENDP	; Co4DyuchiNET::StartServerWithUserSide
_TEXT	ENDS
; Function compile flags: /Odspy
_TEXT	SEGMENT
_this$ = 8						; size = 4
_szIP$ = 12						; size = 4
_port$ = 16						; size = 2
_SuccessFunc$ = 20					; size = 4
_FailFunc$ = 24						; size = 4
_pExt$ = 28						; size = 4
?ConnectToServerWithServerSide@Co4DyuchiNET@@UAGHPADGP6GXKPAX@ZP6GX1@Z1@Z PROC ; Co4DyuchiNET::ConnectToServerWithServerSide
; File e:\github\mso_code\4dyuchinet_latest\conetwork.cpp
; Line 399
  00000	55		 push	 ebp
  00001	8b ec		 mov	 ebp, esp
; Line 400
  00003	ff 75 1c	 push	 DWORD PTR _pExt$[ebp]
  00006	ff 75 18	 push	 DWORD PTR _FailFunc$[ebp]
  00009	ff 75 14	 push	 DWORD PTR _SuccessFunc$[ebp]
  0000c	ff 75 10	 push	 DWORD PTR _port$[ebp]
  0000f	ff 75 0c	 push	 DWORD PTR _szIP$[ebp]
  00012	8b 0d 00 00 00
	00		 mov	 ecx, DWORD PTR ?g_pNetworkForServer@@3PAVCNetwork@@A ; g_pNetworkForServer
  00018	e8 00 00 00 00	 call	 ?ConnectToServer@CNetwork@@QAEHPADGP6GXKPAX@ZP6GX1@Z1@Z ; CNetwork::ConnectToServer
; Line 401
  0001d	5d		 pop	 ebp
  0001e	c2 18 00	 ret	 24			; 00000018H
?ConnectToServerWithServerSide@Co4DyuchiNET@@UAGHPADGP6GXKPAX@ZP6GX1@Z1@Z ENDP ; Co4DyuchiNET::ConnectToServerWithServerSide
_TEXT	ENDS
; Function compile flags: /Odspy
_TEXT	SEGMENT
_this$ = 8						; size = 4
_szIP$ = 12						; size = 4
_port$ = 16						; size = 2
_SuccessFunc$ = 20					; size = 4
_FailFunc$ = 24						; size = 4
_pExt$ = 28						; size = 4
?ConnectToServerWithUserSide@Co4DyuchiNET@@UAGHPADGP6GXKPAX@ZP6GX1@Z1@Z PROC ; Co4DyuchiNET::ConnectToServerWithUserSide
; File e:\github\mso_code\4dyuchinet_latest\conetwork.cpp
; Line 395
  00000	55		 push	 ebp
  00001	8b ec		 mov	 ebp, esp
; Line 396
  00003	ff 75 1c	 push	 DWORD PTR _pExt$[ebp]
  00006	ff 75 18	 push	 DWORD PTR _FailFunc$[ebp]
  00009	ff 75 14	 push	 DWORD PTR _SuccessFunc$[ebp]
  0000c	ff 75 10	 push	 DWORD PTR _port$[ebp]
  0000f	ff 75 0c	 push	 DWORD PTR _szIP$[ebp]
  00012	8b 0d 00 00 00
	00		 mov	 ecx, DWORD PTR ?g_pNetworkForUser@@3PAVCNetwork@@A ; g_pNetworkForUser
  00018	e8 00 00 00 00	 call	 ?ConnectToServer@CNetwork@@QAEHPADGP6GXKPAX@ZP6GX1@Z1@Z ; CNetwork::ConnectToServer
; Line 397
  0001d	5d		 pop	 ebp
  0001e	c2 18 00	 ret	 24			; 00000018H
?ConnectToServerWithUserSide@Co4DyuchiNET@@UAGHPADGP6GXKPAX@ZP6GX1@Z1@Z ENDP ; Co4DyuchiNET::ConnectToServerWithUserSide
_TEXT	ENDS
; Function compile flags: /Odspy
_TEXT	SEGMENT
$T1 = -2						; size = 2
_this$ = 8						; size = 4
?GetBindedPortUserSide@Co4DyuchiNET@@UAGGXZ PROC	; Co4DyuchiNET::GetBindedPortUserSide
; File e:\github\mso_code\4dyuchinet_latest\conetwork.cpp
; Line 391
  00000	55		 push	 ebp
  00001	8b ec		 mov	 ebp, esp
  00003	51		 push	 ecx
; File e:\github\mso_code\4dyuchinet_latest\network.h
; Line 104
  00004	a1 00 00 00 00	 mov	 eax, DWORD PTR ?g_pNetworkForUser@@3PAVCNetwork@@A ; g_pNetworkForUser
  00009	66 8b 40 2c	 mov	 ax, WORD PTR [eax+44]
  0000d	66 89 45 fe	 mov	 WORD PTR $T1[ebp], ax
; File e:\github\mso_code\4dyuchinet_latest\conetwork.cpp
; Line 392
  00011	66 8b 45 fe	 mov	 ax, WORD PTR $T1[ebp]
; Line 393
  00015	8b e5		 mov	 esp, ebp
  00017	5d		 pop	 ebp
  00018	c2 04 00	 ret	 4
?GetBindedPortUserSide@Co4DyuchiNET@@UAGGXZ ENDP	; Co4DyuchiNET::GetBindedPortUserSide
_TEXT	ENDS
; Function compile flags: /Odspy
_TEXT	SEGMENT
$T1 = -2						; size = 2
_this$ = 8						; size = 4
?GetBindedPortServerSide@Co4DyuchiNET@@UAGGXZ PROC	; Co4DyuchiNET::GetBindedPortServerSide
; File e:\github\mso_code\4dyuchinet_latest\conetwork.cpp
; Line 386
  00000	55		 push	 ebp
  00001	8b ec		 mov	 ebp, esp
  00003	51		 push	 ecx
; File e:\github\mso_code\4dyuchinet_latest\network.h
; Line 104
  00004	a1 00 00 00 00	 mov	 eax, DWORD PTR ?g_pNetworkForServer@@3PAVCNetwork@@A ; g_pNetworkForServer
  00009	66 8b 40 2c	 mov	 ax, WORD PTR [eax+44]
  0000d	66 89 45 fe	 mov	 WORD PTR $T1[ebp], ax
; File e:\github\mso_code\4dyuchinet_latest\conetwork.cpp
; Line 387
  00011	66 8b 45 fe	 mov	 ax, WORD PTR $T1[ebp]
; Line 388
  00015	8b e5		 mov	 esp, ebp
  00017	5d		 pop	 ebp
  00018	c2 04 00	 ret	 4
?GetBindedPortServerSide@Co4DyuchiNET@@UAGGXZ ENDP	; Co4DyuchiNET::GetBindedPortServerSide
_TEXT	ENDS
; Function compile flags: /Odspy
_TEXT	SEGMENT
$T1 = -4						; size = 4
_this$ = 8						; size = 4
?GetConnectedUserNum@Co4DyuchiNET@@UAGKXZ PROC		; Co4DyuchiNET::GetConnectedUserNum
; File e:\github\mso_code\4dyuchinet_latest\conetwork.cpp
; Line 381
  00000	55		 push	 ebp
  00001	8b ec		 mov	 ebp, esp
  00003	51		 push	 ecx
; File e:\github\mso_code\4dyuchinet_latest\network.h
; Line 103
  00004	a1 00 00 00 00	 mov	 eax, DWORD PTR ?g_pNetworkForUser@@3PAVCNetwork@@A ; g_pNetworkForUser
  00009	8b 40 30	 mov	 eax, DWORD PTR [eax+48]
  0000c	89 45 fc	 mov	 DWORD PTR $T1[ebp], eax
; File e:\github\mso_code\4dyuchinet_latest\conetwork.cpp
; Line 382
  0000f	8b 45 fc	 mov	 eax, DWORD PTR $T1[ebp]
; Line 383
  00012	8b e5		 mov	 esp, ebp
  00014	5d		 pop	 ebp
  00015	c2 04 00	 ret	 4
?GetConnectedUserNum@Co4DyuchiNET@@UAGKXZ ENDP		; Co4DyuchiNET::GetConnectedUserNum
_TEXT	ENDS
; Function compile flags: /Odspy
_TEXT	SEGMENT
$T1 = -4						; size = 4
_this$ = 8						; size = 4
?GetConnectedServerNum@Co4DyuchiNET@@UAGKXZ PROC	; Co4DyuchiNET::GetConnectedServerNum
; File e:\github\mso_code\4dyuchinet_latest\conetwork.cpp
; Line 376
  00000	55		 push	 ebp
  00001	8b ec		 mov	 ebp, esp
  00003	51		 push	 ecx
; File e:\github\mso_code\4dyuchinet_latest\network.h
; Line 103
  00004	a1 00 00 00 00	 mov	 eax, DWORD PTR ?g_pNetworkForServer@@3PAVCNetwork@@A ; g_pNetworkForServer
  00009	8b 40 30	 mov	 eax, DWORD PTR [eax+48]
  0000c	89 45 fc	 mov	 DWORD PTR $T1[ebp], eax
; File e:\github\mso_code\4dyuchinet_latest\conetwork.cpp
; Line 377
  0000f	8b 45 fc	 mov	 eax, DWORD PTR $T1[ebp]
; Line 378
  00012	8b e5		 mov	 esp, ebp
  00014	5d		 pop	 ebp
  00015	c2 04 00	 ret	 4
?GetConnectedServerNum@Co4DyuchiNET@@UAGKXZ ENDP	; Co4DyuchiNET::GetConnectedServerNum
_TEXT	ENDS
; Function compile flags: /Odspy
_TEXT	SEGMENT
_this$ = 8						; size = 4
_pMsg$ = 12						; size = 4
_len$ = 16						; size = 4
_flag$ = 20						; size = 4
?BroadcastUser@Co4DyuchiNET@@UAGXPADKK@Z PROC		; Co4DyuchiNET::BroadcastUser
; File e:\github\mso_code\4dyuchinet_latest\conetwork.cpp
; Line 372
  00000	55		 push	 ebp
  00001	8b ec		 mov	 ebp, esp
; Line 373
  00003	ff 75 14	 push	 DWORD PTR _flag$[ebp]
  00006	ff 75 10	 push	 DWORD PTR _len$[ebp]
  00009	ff 75 0c	 push	 DWORD PTR _pMsg$[ebp]
  0000c	8b 0d 00 00 00
	00		 mov	 ecx, DWORD PTR ?g_pNetworkForUser@@3PAVCNetwork@@A ; g_pNetworkForUser
  00012	e8 00 00 00 00	 call	 ?Broadcast@CNetwork@@QAEXPADKK@Z ; CNetwork::Broadcast
; Line 374
  00017	5d		 pop	 ebp
  00018	c2 10 00	 ret	 16			; 00000010H
?BroadcastUser@Co4DyuchiNET@@UAGXPADKK@Z ENDP		; Co4DyuchiNET::BroadcastUser
_TEXT	ENDS
; Function compile flags: /Odspy
_TEXT	SEGMENT
_this$ = 8						; size = 4
_pMsg$ = 12						; size = 4
_len$ = 16						; size = 4
_flag$ = 20						; size = 4
?BroadcastServer@Co4DyuchiNET@@UAGXPADKK@Z PROC		; Co4DyuchiNET::BroadcastServer
; File e:\github\mso_code\4dyuchinet_latest\conetwork.cpp
; Line 367
  00000	55		 push	 ebp
  00001	8b ec		 mov	 ebp, esp
; Line 368
  00003	ff 75 14	 push	 DWORD PTR _flag$[ebp]
  00006	ff 75 10	 push	 DWORD PTR _len$[ebp]
  00009	ff 75 0c	 push	 DWORD PTR _pMsg$[ebp]
  0000c	8b 0d 00 00 00
	00		 mov	 ecx, DWORD PTR ?g_pNetworkForServer@@3PAVCNetwork@@A ; g_pNetworkForServer
  00012	e8 00 00 00 00	 call	 ?Broadcast@CNetwork@@QAEXPADKK@Z ; CNetwork::Broadcast
; Line 369
  00017	5d		 pop	 ebp
  00018	c2 10 00	 ret	 16			; 00000010H
?BroadcastServer@Co4DyuchiNET@@UAGXPADKK@Z ENDP		; Co4DyuchiNET::BroadcastServer
_TEXT	ENDS
; Function compile flags: /Odspy
_TEXT	SEGMENT
$T1 = -4						; size = 4
_this$ = 8						; size = 4
?GetUserMaxTransferSendSize@Co4DyuchiNET@@UAGHXZ PROC	; Co4DyuchiNET::GetUserMaxTransferSendSize
; File e:\github\mso_code\4dyuchinet_latest\conetwork.cpp
; Line 362
  00000	55		 push	 ebp
  00001	8b ec		 mov	 ebp, esp
  00003	51		 push	 ecx
; File e:\github\mso_code\4dyuchinet_latest\network.h
; Line 80
  00004	a1 00 00 00 00	 mov	 eax, DWORD PTR ?g_pNetworkForUser@@3PAVCNetwork@@A ; g_pNetworkForUser
  00009	8b 40 54	 mov	 eax, DWORD PTR [eax+84]
  0000c	89 45 fc	 mov	 DWORD PTR $T1[ebp], eax
; File e:\github\mso_code\4dyuchinet_latest\conetwork.cpp
; Line 363
  0000f	8b 45 fc	 mov	 eax, DWORD PTR $T1[ebp]
; Line 364
  00012	8b e5		 mov	 esp, ebp
  00014	5d		 pop	 ebp
  00015	c2 04 00	 ret	 4
?GetUserMaxTransferSendSize@Co4DyuchiNET@@UAGHXZ ENDP	; Co4DyuchiNET::GetUserMaxTransferSendSize
_TEXT	ENDS
; Function compile flags: /Odspy
_TEXT	SEGMENT
$T1 = -4						; size = 4
_this$ = 8						; size = 4
?GetUserMaxTransferRecvSize@Co4DyuchiNET@@UAGHXZ PROC	; Co4DyuchiNET::GetUserMaxTransferRecvSize
; File e:\github\mso_code\4dyuchinet_latest\conetwork.cpp
; Line 357
  00000	55		 push	 ebp
  00001	8b ec		 mov	 ebp, esp
  00003	51		 push	 ecx
; File e:\github\mso_code\4dyuchinet_latest\network.h
; Line 79
  00004	a1 00 00 00 00	 mov	 eax, DWORD PTR ?g_pNetworkForUser@@3PAVCNetwork@@A ; g_pNetworkForUser
  00009	8b 40 50	 mov	 eax, DWORD PTR [eax+80]
  0000c	89 45 fc	 mov	 DWORD PTR $T1[ebp], eax
; File e:\github\mso_code\4dyuchinet_latest\conetwork.cpp
; Line 358
  0000f	8b 45 fc	 mov	 eax, DWORD PTR $T1[ebp]
; Line 359
  00012	8b e5		 mov	 esp, ebp
  00014	5d		 pop	 ebp
  00015	c2 04 00	 ret	 4
?GetUserMaxTransferRecvSize@Co4DyuchiNET@@UAGHXZ ENDP	; Co4DyuchiNET::GetUserMaxTransferRecvSize
_TEXT	ENDS
; Function compile flags: /Odspy
_TEXT	SEGMENT
$T1 = -4						; size = 4
_this$ = 8						; size = 4
?GetServerMaxTransferSendSize@Co4DyuchiNET@@UAGHXZ PROC	; Co4DyuchiNET::GetServerMaxTransferSendSize
; File e:\github\mso_code\4dyuchinet_latest\conetwork.cpp
; Line 352
  00000	55		 push	 ebp
  00001	8b ec		 mov	 ebp, esp
  00003	51		 push	 ecx
; File e:\github\mso_code\4dyuchinet_latest\network.h
; Line 80
  00004	a1 00 00 00 00	 mov	 eax, DWORD PTR ?g_pNetworkForServer@@3PAVCNetwork@@A ; g_pNetworkForServer
  00009	8b 40 54	 mov	 eax, DWORD PTR [eax+84]
  0000c	89 45 fc	 mov	 DWORD PTR $T1[ebp], eax
; File e:\github\mso_code\4dyuchinet_latest\conetwork.cpp
; Line 353
  0000f	8b 45 fc	 mov	 eax, DWORD PTR $T1[ebp]
; Line 354
  00012	8b e5		 mov	 esp, ebp
  00014	5d		 pop	 ebp
  00015	c2 04 00	 ret	 4
?GetServerMaxTransferSendSize@Co4DyuchiNET@@UAGHXZ ENDP	; Co4DyuchiNET::GetServerMaxTransferSendSize
_TEXT	ENDS
; Function compile flags: /Odspy
_TEXT	SEGMENT
$T1 = -4						; size = 4
_this$ = 8						; size = 4
?GetServerMaxTransferRecvSize@Co4DyuchiNET@@UAGHXZ PROC	; Co4DyuchiNET::GetServerMaxTransferRecvSize
; File e:\github\mso_code\4dyuchinet_latest\conetwork.cpp
; Line 347
  00000	55		 push	 ebp
  00001	8b ec		 mov	 ebp, esp
  00003	51		 push	 ecx
; File e:\github\mso_code\4dyuchinet_latest\network.h
; Line 79
  00004	a1 00 00 00 00	 mov	 eax, DWORD PTR ?g_pNetworkForServer@@3PAVCNetwork@@A ; g_pNetworkForServer
  00009	8b 40 50	 mov	 eax, DWORD PTR [eax+80]
  0000c	89 45 fc	 mov	 DWORD PTR $T1[ebp], eax
; File e:\github\mso_code\4dyuchinet_latest\conetwork.cpp
; Line 348
  0000f	8b 45 fc	 mov	 eax, DWORD PTR $T1[ebp]
; Line 349
  00012	8b e5		 mov	 esp, ebp
  00014	5d		 pop	 ebp
  00015	c2 04 00	 ret	 4
?GetServerMaxTransferRecvSize@Co4DyuchiNET@@UAGHXZ ENDP	; Co4DyuchiNET::GetServerMaxTransferRecvSize
_TEXT	ENDS
; Function compile flags: /Odspy
_TEXT	SEGMENT
_this$ = 8						; size = 4
_dwConnectionIndex$ = 12				; size = 4
?CompulsiveDisconnectUser@Co4DyuchiNET@@UAGXK@Z PROC	; Co4DyuchiNET::CompulsiveDisconnectUser
; File e:\github\mso_code\4dyuchinet_latest\conetwork.cpp
; Line 342
  00000	55		 push	 ebp
  00001	8b ec		 mov	 ebp, esp
; Line 343
  00003	ff 75 0c	 push	 DWORD PTR _dwConnectionIndex$[ebp]
  00006	8b 0d 00 00 00
	00		 mov	 ecx, DWORD PTR ?g_pNetworkForUser@@3PAVCNetwork@@A ; g_pNetworkForUser
  0000c	e8 00 00 00 00	 call	 ?CompulsiveDisconnect@CNetwork@@QAEXK@Z ; CNetwork::CompulsiveDisconnect
; Line 344
  00011	5d		 pop	 ebp
  00012	c2 08 00	 ret	 8
?CompulsiveDisconnectUser@Co4DyuchiNET@@UAGXK@Z ENDP	; Co4DyuchiNET::CompulsiveDisconnectUser
_TEXT	ENDS
; Function compile flags: /Odspy
_TEXT	SEGMENT
_this$ = 8						; size = 4
_dwConnectionIndex$ = 12				; size = 4
?CompulsiveDisconnectServer@Co4DyuchiNET@@UAGXK@Z PROC	; Co4DyuchiNET::CompulsiveDisconnectServer
; File e:\github\mso_code\4dyuchinet_latest\conetwork.cpp
; Line 338
  00000	55		 push	 ebp
  00001	8b ec		 mov	 ebp, esp
; Line 339
  00003	ff 75 0c	 push	 DWORD PTR _dwConnectionIndex$[ebp]
  00006	8b 0d 00 00 00
	00		 mov	 ecx, DWORD PTR ?g_pNetworkForServer@@3PAVCNetwork@@A ; g_pNetworkForServer
  0000c	e8 00 00 00 00	 call	 ?CompulsiveDisconnect@CNetwork@@QAEXK@Z ; CNetwork::CompulsiveDisconnect
; Line 340
  00011	5d		 pop	 ebp
  00012	c2 08 00	 ret	 8
?CompulsiveDisconnectServer@Co4DyuchiNET@@UAGXK@Z ENDP	; Co4DyuchiNET::CompulsiveDisconnectServer
_TEXT	ENDS
; Function compile flags: /Odspy
_TEXT	SEGMENT
_this$ = 8						; size = 4
_dwConnectionIndex$ = 12				; size = 4
_msg$ = 16						; size = 4
_length$ = 20						; size = 4
_flag$ = 24						; size = 4
?SendToUser@Co4DyuchiNET@@UAGHKPADKK@Z PROC		; Co4DyuchiNET::SendToUser
; File e:\github\mso_code\4dyuchinet_latest\conetwork.cpp
; Line 315
  00000	55		 push	 ebp
  00001	8b ec		 mov	 ebp, esp
; Line 316
  00003	ff 75 18	 push	 DWORD PTR _flag$[ebp]
  00006	ff 75 14	 push	 DWORD PTR _length$[ebp]
  00009	ff 75 10	 push	 DWORD PTR _msg$[ebp]
  0000c	ff 75 0c	 push	 DWORD PTR _dwConnectionIndex$[ebp]
  0000f	8b 0d 00 00 00
	00		 mov	 ecx, DWORD PTR ?g_pNetworkForUser@@3PAVCNetwork@@A ; g_pNetworkForUser
  00015	e8 00 00 00 00	 call	 ?Send@CNetwork@@QAEHKPADKK@Z ; CNetwork::Send
; Line 317
  0001a	5d		 pop	 ebp
  0001b	c2 14 00	 ret	 20			; 00000014H
?SendToUser@Co4DyuchiNET@@UAGHKPADKK@Z ENDP		; Co4DyuchiNET::SendToUser
_TEXT	ENDS
; Function compile flags: /Odspy
_TEXT	SEGMENT
_this$ = 8						; size = 4
_dwConnectionIndex$ = 12				; size = 4
_msg$ = 16						; size = 4
_length$ = 20						; size = 4
_flag$ = 24						; size = 4
?SendToServer@Co4DyuchiNET@@UAGHKPADKK@Z PROC		; Co4DyuchiNET::SendToServer
; File e:\github\mso_code\4dyuchinet_latest\conetwork.cpp
; Line 311
  00000	55		 push	 ebp
  00001	8b ec		 mov	 ebp, esp
; Line 312
  00003	ff 75 18	 push	 DWORD PTR _flag$[ebp]
  00006	ff 75 14	 push	 DWORD PTR _length$[ebp]
  00009	ff 75 10	 push	 DWORD PTR _msg$[ebp]
  0000c	ff 75 0c	 push	 DWORD PTR _dwConnectionIndex$[ebp]
  0000f	8b 0d 00 00 00
	00		 mov	 ecx, DWORD PTR ?g_pNetworkForServer@@3PAVCNetwork@@A ; g_pNetworkForServer
  00015	e8 00 00 00 00	 call	 ?Send@CNetwork@@QAEHKPADKK@Z ; CNetwork::Send
; Line 313
  0001a	5d		 pop	 ebp
  0001b	c2 14 00	 ret	 20			; 00000014H
?SendToServer@Co4DyuchiNET@@UAGHKPADKK@Z ENDP		; Co4DyuchiNET::SendToServer
_TEXT	ENDS
; Function compile flags: /Odspy
_TEXT	SEGMENT
_bResult$ = -8						; size = 4
_con$ = -4						; size = 4
_this$ = 8						; size = 4
_dwConnectionIndex$ = 12				; size = 4
_pIP$ = 16						; size = 4
_pwPort$ = 20						; size = 4
?GetUserAddress@Co4DyuchiNET@@UAGHKPADPAG@Z PROC	; Co4DyuchiNET::GetUserAddress
; File e:\github\mso_code\4dyuchinet_latest\conetwork.cpp
; Line 283
  00000	55		 push	 ebp
  00001	8b ec		 mov	 ebp, esp
  00003	51		 push	 ecx
  00004	51		 push	 ecx
; Line 284
  00005	83 65 f8 00	 and	 DWORD PTR _bResult$[ebp], 0
; Line 286
  00009	ff 75 0c	 push	 DWORD PTR _dwConnectionIndex$[ebp]
  0000c	8d 45 fc	 lea	 eax, DWORD PTR _con$[ebp]
  0000f	50		 push	 eax
  00010	8b 0d 00 00 00
	00		 mov	 ecx, DWORD PTR ?g_pNetworkForUser@@3PAVCNetwork@@A ; g_pNetworkForUser
  00016	e8 00 00 00 00	 call	 ?GetConnection@CNetwork@@QAEXPAPAVCConnection@@K@Z ; CNetwork::GetConnection
; Line 287
  0001b	83 7d fc 00	 cmp	 DWORD PTR _con$[ebp], 0
  0001f	75 04		 jne	 SHORT $LN2@GetUserAdd
; Line 288
  00021	eb 13		 jmp	 SHORT $lb_return$5
  00023	eb 11		 jmp	 SHORT $lb_return$5
$LN2@GetUserAdd:
; Line 290
  00025	ff 75 14	 push	 DWORD PTR _pwPort$[ebp]
  00028	ff 75 10	 push	 DWORD PTR _pIP$[ebp]
  0002b	8b 4d fc	 mov	 ecx, DWORD PTR _con$[ebp]
  0002e	e8 00 00 00 00	 call	 ?GetAddress@CConnection@@QAEHPADPAG@Z ; CConnection::GetAddress
  00033	89 45 f8	 mov	 DWORD PTR _bResult$[ebp], eax
$lb_return$5:
; Line 293
  00036	8b 45 f8	 mov	 eax, DWORD PTR _bResult$[ebp]
; Line 294
  00039	8b e5		 mov	 esp, ebp
  0003b	5d		 pop	 ebp
  0003c	c2 10 00	 ret	 16			; 00000010H
?GetUserAddress@Co4DyuchiNET@@UAGHKPADPAG@Z ENDP	; Co4DyuchiNET::GetUserAddress
_TEXT	ENDS
; Function compile flags: /Odspy
_TEXT	SEGMENT
_bResult$ = -8						; size = 4
_con$ = -4						; size = 4
_this$ = 8						; size = 4
_dwConnectionIndex$ = 12				; size = 4
_pIP$ = 16						; size = 4
_pwPort$ = 20						; size = 4
?GetServerAddress@Co4DyuchiNET@@UAGHKPADPAG@Z PROC	; Co4DyuchiNET::GetServerAddress
; File e:\github\mso_code\4dyuchinet_latest\conetwork.cpp
; Line 297
  00000	55		 push	 ebp
  00001	8b ec		 mov	 ebp, esp
  00003	51		 push	 ecx
  00004	51		 push	 ecx
; Line 298
  00005	83 65 f8 00	 and	 DWORD PTR _bResult$[ebp], 0
; Line 300
  00009	ff 75 0c	 push	 DWORD PTR _dwConnectionIndex$[ebp]
  0000c	8d 45 fc	 lea	 eax, DWORD PTR _con$[ebp]
  0000f	50		 push	 eax
  00010	8b 0d 00 00 00
	00		 mov	 ecx, DWORD PTR ?g_pNetworkForServer@@3PAVCNetwork@@A ; g_pNetworkForServer
  00016	e8 00 00 00 00	 call	 ?GetConnection@CNetwork@@QAEXPAPAVCConnection@@K@Z ; CNetwork::GetConnection
; Line 302
  0001b	83 7d fc 00	 cmp	 DWORD PTR _con$[ebp], 0
  0001f	75 04		 jne	 SHORT $LN2@GetServerA
; Line 303
  00021	eb 13		 jmp	 SHORT $lb_return$5
  00023	eb 11		 jmp	 SHORT $lb_return$5
$LN2@GetServerA:
; Line 305
  00025	ff 75 14	 push	 DWORD PTR _pwPort$[ebp]
  00028	ff 75 10	 push	 DWORD PTR _pIP$[ebp]
  0002b	8b 4d fc	 mov	 ecx, DWORD PTR _con$[ebp]
  0002e	e8 00 00 00 00	 call	 ?GetAddress@CConnection@@QAEHPADPAG@Z ; CConnection::GetAddress
  00033	89 45 f8	 mov	 DWORD PTR _bResult$[ebp], eax
$lb_return$5:
; Line 308
  00036	8b 45 f8	 mov	 eax, DWORD PTR _bResult$[ebp]
; Line 309
  00039	8b e5		 mov	 esp, ebp
  0003b	5d		 pop	 ebp
  0003c	c2 10 00	 ret	 16			; 00000010H
?GetServerAddress@Co4DyuchiNET@@UAGHKPADPAG@Z ENDP	; Co4DyuchiNET::GetServerAddress
_TEXT	ENDS
; Function compile flags: /Odspy
_TEXT	SEGMENT
_pAddr$ = -8						; size = 4
_con$ = -4						; size = 4
_this$ = 8						; size = 4
_dwConnectionIndex$ = 12				; size = 4
?GetUserAddress@Co4DyuchiNET@@UAGPAUsockaddr_in@@K@Z PROC ; Co4DyuchiNET::GetUserAddress
; File e:\github\mso_code\4dyuchinet_latest\conetwork.cpp
; Line 268
  00000	55		 push	 ebp
  00001	8b ec		 mov	 ebp, esp
  00003	51		 push	 ecx
  00004	51		 push	 ecx
; Line 269
  00005	83 65 f8 00	 and	 DWORD PTR _pAddr$[ebp], 0
; Line 272
  00009	ff 75 0c	 push	 DWORD PTR _dwConnectionIndex$[ebp]
  0000c	8d 45 fc	 lea	 eax, DWORD PTR _con$[ebp]
  0000f	50		 push	 eax
  00010	8b 0d 00 00 00
	00		 mov	 ecx, DWORD PTR ?g_pNetworkForUser@@3PAVCNetwork@@A ; g_pNetworkForUser
  00016	e8 00 00 00 00	 call	 ?GetConnection@CNetwork@@QAEXPAPAVCConnection@@K@Z ; CNetwork::GetConnection
; Line 273
  0001b	83 7d fc 00	 cmp	 DWORD PTR _con$[ebp], 0
  0001f	75 04		 jne	 SHORT $LN5@GetUserAdd
; Line 274
  00021	eb 0b		 jmp	 SHORT $lb_return$7
  00023	eb 09		 jmp	 SHORT $lb_return$7
$LN5@GetUserAdd:
; File e:\github\mso_code\4dyuchinet_latest\connection.h
; Line 58
  00025	8b 45 fc	 mov	 eax, DWORD PTR _con$[ebp]
  00028	83 c0 0c	 add	 eax, 12			; 0000000cH
; File e:\github\mso_code\4dyuchinet_latest\conetwork.cpp
; Line 276
  0002b	89 45 f8	 mov	 DWORD PTR _pAddr$[ebp], eax
$lb_return$7:
; Line 279
  0002e	8b 45 f8	 mov	 eax, DWORD PTR _pAddr$[ebp]
; Line 280
  00031	8b e5		 mov	 esp, ebp
  00033	5d		 pop	 ebp
  00034	c2 08 00	 ret	 8
?GetUserAddress@Co4DyuchiNET@@UAGPAUsockaddr_in@@K@Z ENDP ; Co4DyuchiNET::GetUserAddress
_TEXT	ENDS
; Function compile flags: /Odspy
_TEXT	SEGMENT
_pAddr$ = -8						; size = 4
_con$ = -4						; size = 4
_this$ = 8						; size = 4
_dwConnectionIndex$ = 12				; size = 4
?GetServerAddress@Co4DyuchiNET@@UAGPAUsockaddr_in@@K@Z PROC ; Co4DyuchiNET::GetServerAddress
; File e:\github\mso_code\4dyuchinet_latest\conetwork.cpp
; Line 254
  00000	55		 push	 ebp
  00001	8b ec		 mov	 ebp, esp
  00003	51		 push	 ecx
  00004	51		 push	 ecx
; Line 255
  00005	83 65 f8 00	 and	 DWORD PTR _pAddr$[ebp], 0
; Line 258
  00009	ff 75 0c	 push	 DWORD PTR _dwConnectionIndex$[ebp]
  0000c	8d 45 fc	 lea	 eax, DWORD PTR _con$[ebp]
  0000f	50		 push	 eax
  00010	8b 0d 00 00 00
	00		 mov	 ecx, DWORD PTR ?g_pNetworkForServer@@3PAVCNetwork@@A ; g_pNetworkForServer
  00016	e8 00 00 00 00	 call	 ?GetConnection@CNetwork@@QAEXPAPAVCConnection@@K@Z ; CNetwork::GetConnection
; Line 259
  0001b	83 7d fc 00	 cmp	 DWORD PTR _con$[ebp], 0
  0001f	75 04		 jne	 SHORT $LN5@GetServerA
; Line 260
  00021	eb 0b		 jmp	 SHORT $lb_return$7
  00023	eb 09		 jmp	 SHORT $lb_return$7
$LN5@GetServerA:
; File e:\github\mso_code\4dyuchinet_latest\connection.h
; Line 58
  00025	8b 45 fc	 mov	 eax, DWORD PTR _con$[ebp]
  00028	83 c0 0c	 add	 eax, 12			; 0000000cH
; File e:\github\mso_code\4dyuchinet_latest\conetwork.cpp
; Line 262
  0002b	89 45 f8	 mov	 DWORD PTR _pAddr$[ebp], eax
$lb_return$7:
; Line 265
  0002e	8b 45 f8	 mov	 eax, DWORD PTR _pAddr$[ebp]
; Line 266
  00031	8b e5		 mov	 esp, ebp
  00033	5d		 pop	 ebp
  00034	c2 08 00	 ret	 8
?GetServerAddress@Co4DyuchiNET@@UAGPAUsockaddr_in@@K@Z ENDP ; Co4DyuchiNET::GetServerAddress
_TEXT	ENDS
; Function compile flags: /Odspy
_TEXT	SEGMENT
_pInfo$ = -8						; size = 4
_con$ = -4						; size = 4
_this$ = 8						; size = 4
_dwConnectionIndex$ = 12				; size = 4
?GetServerInfo@Co4DyuchiNET@@UAGPAXK@Z PROC		; Co4DyuchiNET::GetServerInfo
; File e:\github\mso_code\4dyuchinet_latest\conetwork.cpp
; Line 239
  00000	55		 push	 ebp
  00001	8b ec		 mov	 ebp, esp
  00003	51		 push	 ecx
  00004	51		 push	 ecx
; Line 240
  00005	83 65 f8 00	 and	 DWORD PTR _pInfo$[ebp], 0
; Line 243
  00009	ff 75 0c	 push	 DWORD PTR _dwConnectionIndex$[ebp]
  0000c	8d 45 fc	 lea	 eax, DWORD PTR _con$[ebp]
  0000f	50		 push	 eax
  00010	8b 0d 00 00 00
	00		 mov	 ecx, DWORD PTR ?g_pNetworkForServer@@3PAVCNetwork@@A ; g_pNetworkForServer
  00016	e8 00 00 00 00	 call	 ?GetConnection@CNetwork@@QAEXPAPAVCConnection@@K@Z ; CNetwork::GetConnection
; Line 244
  0001b	83 7d fc 00	 cmp	 DWORD PTR _con$[ebp], 0
  0001f	75 04		 jne	 SHORT $LN2@GetServerI
; Line 245
  00021	eb 19		 jmp	 SHORT $lb_return$8
  00023	eb 17		 jmp	 SHORT $lb_return$8
$LN2@GetServerI:
; File e:\github\mso_code\4dyuchinet_latest\connection.h
; Line 54
  00025	8b 45 fc	 mov	 eax, DWORD PTR _con$[ebp]
  00028	83 78 04 00	 cmp	 DWORD PTR [eax+4], 0
  0002c	75 06		 jne	 SHORT $LN5@GetServerI
  0002e	83 65 f8 00	 and	 DWORD PTR _pInfo$[ebp], 0
  00032	eb 08		 jmp	 SHORT $lb_return$8
$LN5@GetServerI:
  00034	8b 45 fc	 mov	 eax, DWORD PTR _con$[ebp]
  00037	8b 00		 mov	 eax, DWORD PTR [eax]
  00039	89 45 f8	 mov	 DWORD PTR _pInfo$[ebp], eax
$lb_return$8:
; File e:\github\mso_code\4dyuchinet_latest\conetwork.cpp
; Line 250
  0003c	8b 45 f8	 mov	 eax, DWORD PTR _pInfo$[ebp]
; Line 251
  0003f	8b e5		 mov	 esp, ebp
  00041	5d		 pop	 ebp
  00042	c2 08 00	 ret	 8
?GetServerInfo@Co4DyuchiNET@@UAGPAXK@Z ENDP		; Co4DyuchiNET::GetServerInfo
_TEXT	ENDS
; Function compile flags: /Odspy
_TEXT	SEGMENT
_this$ = -8						; size = 4
_con$ = -4						; size = 4
_this$ = 8						; size = 4
_dwConnectionIndex$ = 12				; size = 4
_server$ = 16						; size = 4
?SetServerInfo@Co4DyuchiNET@@UAGXKPAX@Z PROC		; Co4DyuchiNET::SetServerInfo
; File e:\github\mso_code\4dyuchinet_latest\conetwork.cpp
; Line 231
  00000	55		 push	 ebp
  00001	8b ec		 mov	 ebp, esp
  00003	51		 push	 ecx
  00004	51		 push	 ecx
; Line 234
  00005	ff 75 0c	 push	 DWORD PTR _dwConnectionIndex$[ebp]
  00008	8d 45 fc	 lea	 eax, DWORD PTR _con$[ebp]
  0000b	50		 push	 eax
  0000c	8b 0d 00 00 00
	00		 mov	 ecx, DWORD PTR ?g_pNetworkForServer@@3PAVCNetwork@@A ; g_pNetworkForServer
  00012	e8 00 00 00 00	 call	 ?GetConnection@CNetwork@@QAEXPAPAVCConnection@@K@Z ; CNetwork::GetConnection
; Line 235
  00017	83 7d fc 00	 cmp	 DWORD PTR _con$[ebp], 0
  0001b	74 19		 je	 SHORT $LN2@SetServerI
; Line 236
  0001d	8b 45 fc	 mov	 eax, DWORD PTR _con$[ebp]
  00020	89 45 f8	 mov	 DWORD PTR _this$[ebp], eax
; File e:\github\mso_code\4dyuchinet_latest\connection.h
; Line 53
  00023	8b 45 f8	 mov	 eax, DWORD PTR _this$[ebp]
  00026	83 78 04 00	 cmp	 DWORD PTR [eax+4], 0
  0002a	75 02		 jne	 SHORT $LN4@SetServerI
  0002c	eb 08		 jmp	 SHORT $LN2@SetServerI
$LN4@SetServerI:
  0002e	8b 45 f8	 mov	 eax, DWORD PTR _this$[ebp]
  00031	8b 4d 10	 mov	 ecx, DWORD PTR _server$[ebp]
  00034	89 08		 mov	 DWORD PTR [eax], ecx
$LN2@SetServerI:
; File e:\github\mso_code\4dyuchinet_latest\conetwork.cpp
; Line 237
  00036	8b e5		 mov	 esp, ebp
  00038	5d		 pop	 ebp
  00039	c2 0c 00	 ret	 12			; 0000000cH
?SetServerInfo@Co4DyuchiNET@@UAGXKPAX@Z ENDP		; Co4DyuchiNET::SetServerInfo
_TEXT	ENDS
; Function compile flags: /Odspy
_TEXT	SEGMENT
_pInfo$ = -8						; size = 4
_con$ = -4						; size = 4
_this$ = 8						; size = 4
_dwConnectionIndex$ = 12				; size = 4
?GetUserInfo@Co4DyuchiNET@@UAGPAXK@Z PROC		; Co4DyuchiNET::GetUserInfo
; File e:\github\mso_code\4dyuchinet_latest\conetwork.cpp
; Line 218
  00000	55		 push	 ebp
  00001	8b ec		 mov	 ebp, esp
  00003	51		 push	 ecx
  00004	51		 push	 ecx
; Line 219
  00005	83 65 f8 00	 and	 DWORD PTR _pInfo$[ebp], 0
; Line 221
  00009	ff 75 0c	 push	 DWORD PTR _dwConnectionIndex$[ebp]
  0000c	8d 45 fc	 lea	 eax, DWORD PTR _con$[ebp]
  0000f	50		 push	 eax
  00010	8b 0d 00 00 00
	00		 mov	 ecx, DWORD PTR ?g_pNetworkForUser@@3PAVCNetwork@@A ; g_pNetworkForUser
  00016	e8 00 00 00 00	 call	 ?GetConnection@CNetwork@@QAEXPAPAVCConnection@@K@Z ; CNetwork::GetConnection
; Line 222
  0001b	83 7d fc 00	 cmp	 DWORD PTR _con$[ebp], 0
  0001f	75 04		 jne	 SHORT $LN2@GetUserInf
; Line 223
  00021	eb 19		 jmp	 SHORT $lb_return$8
  00023	eb 17		 jmp	 SHORT $lb_return$8
$LN2@GetUserInf:
; File e:\github\mso_code\4dyuchinet_latest\connection.h
; Line 54
  00025	8b 45 fc	 mov	 eax, DWORD PTR _con$[ebp]
  00028	83 78 04 00	 cmp	 DWORD PTR [eax+4], 0
  0002c	75 06		 jne	 SHORT $LN5@GetUserInf
  0002e	83 65 f8 00	 and	 DWORD PTR _pInfo$[ebp], 0
  00032	eb 08		 jmp	 SHORT $lb_return$8
$LN5@GetUserInf:
  00034	8b 45 fc	 mov	 eax, DWORD PTR _con$[ebp]
  00037	8b 00		 mov	 eax, DWORD PTR [eax]
  00039	89 45 f8	 mov	 DWORD PTR _pInfo$[ebp], eax
$lb_return$8:
; File e:\github\mso_code\4dyuchinet_latest\conetwork.cpp
; Line 228
  0003c	8b 45 f8	 mov	 eax, DWORD PTR _pInfo$[ebp]
; Line 229
  0003f	8b e5		 mov	 esp, ebp
  00041	5d		 pop	 ebp
  00042	c2 08 00	 ret	 8
?GetUserInfo@Co4DyuchiNET@@UAGPAXK@Z ENDP		; Co4DyuchiNET::GetUserInfo
_TEXT	ENDS
; Function compile flags: /Odspy
_TEXT	SEGMENT
_this$ = -8						; size = 4
_con$ = -4						; size = 4
_this$ = 8						; size = 4
_dwConnectionIndex$ = 12				; size = 4
_user$ = 16						; size = 4
?SetUserInfo@Co4DyuchiNET@@UAGXKPAX@Z PROC		; Co4DyuchiNET::SetUserInfo
; File e:\github\mso_code\4dyuchinet_latest\conetwork.cpp
; Line 210
  00000	55		 push	 ebp
  00001	8b ec		 mov	 ebp, esp
  00003	51		 push	 ecx
  00004	51		 push	 ecx
; Line 212
  00005	ff 75 0c	 push	 DWORD PTR _dwConnectionIndex$[ebp]
  00008	8d 45 fc	 lea	 eax, DWORD PTR _con$[ebp]
  0000b	50		 push	 eax
  0000c	8b 0d 00 00 00
	00		 mov	 ecx, DWORD PTR ?g_pNetworkForUser@@3PAVCNetwork@@A ; g_pNetworkForUser
  00012	e8 00 00 00 00	 call	 ?GetConnection@CNetwork@@QAEXPAPAVCConnection@@K@Z ; CNetwork::GetConnection
; Line 213
  00017	83 7d fc 00	 cmp	 DWORD PTR _con$[ebp], 0
  0001b	74 19		 je	 SHORT $LN2@SetUserInf
; Line 214
  0001d	8b 45 fc	 mov	 eax, DWORD PTR _con$[ebp]
  00020	89 45 f8	 mov	 DWORD PTR _this$[ebp], eax
; File e:\github\mso_code\4dyuchinet_latest\connection.h
; Line 53
  00023	8b 45 f8	 mov	 eax, DWORD PTR _this$[ebp]
  00026	83 78 04 00	 cmp	 DWORD PTR [eax+4], 0
  0002a	75 02		 jne	 SHORT $LN4@SetUserInf
  0002c	eb 08		 jmp	 SHORT $LN2@SetUserInf
$LN4@SetUserInf:
  0002e	8b 45 f8	 mov	 eax, DWORD PTR _this$[ebp]
  00031	8b 4d 10	 mov	 ecx, DWORD PTR _user$[ebp]
  00034	89 08		 mov	 DWORD PTR [eax], ecx
$LN2@SetUserInf:
; File e:\github\mso_code\4dyuchinet_latest\conetwork.cpp
; Line 216
  00036	8b e5		 mov	 esp, ebp
  00038	5d		 pop	 ebp
  00039	c2 0c 00	 ret	 12			; 0000000cH
?SetUserInfo@Co4DyuchiNET@@UAGXKPAX@Z ENDP		; Co4DyuchiNET::SetUserInfo
_TEXT	ENDS
; Function compile flags: /Odspy
_TEXT	SEGMENT
_this$ = 8						; size = 4
?ResumeMainThread@Co4DyuchiNET@@UAGXXZ PROC		; Co4DyuchiNET::ResumeMainThread
; File e:\github\mso_code\4dyuchinet_latest\conetwork.cpp
; Line 206
  00000	55		 push	 ebp
  00001	8b ec		 mov	 ebp, esp
; Line 207
  00003	e8 00 00 00 00	 call	 ?ResumeMainThread@@YAXXZ ; ResumeMainThread
; Line 208
  00008	5d		 pop	 ebp
  00009	c2 04 00	 ret	 4
?ResumeMainThread@Co4DyuchiNET@@UAGXXZ ENDP		; Co4DyuchiNET::ResumeMainThread
_TEXT	ENDS
; Function compile flags: /Odspy
_TEXT	SEGMENT
_this$ = 8						; size = 4
?BreakMainThread@Co4DyuchiNET@@UAGXXZ PROC		; Co4DyuchiNET::BreakMainThread
; File e:\github\mso_code\4dyuchinet_latest\conetwork.cpp
; Line 200
  00000	55		 push	 ebp
  00001	8b ec		 mov	 ebp, esp
; Line 201
  00003	e8 00 00 00 00	 call	 ?BreakMainThread@@YAXXZ	; BreakMainThread
; Line 202
  00008	5d		 pop	 ebp
  00009	c2 04 00	 ret	 4
?BreakMainThread@Co4DyuchiNET@@UAGXXZ ENDP		; Co4DyuchiNET::BreakMainThread
_TEXT	ENDS
; Function compile flags: /Odspy
_TEXT	SEGMENT
$T2 = -132						; size = 4
_size$ = -128						; size = 4
_this$ = -124						; size = 4
_size$ = -120						; size = 4
_this$ = -116						; size = 4
_pFunc$ = -112						; size = 4
_this$ = -108						; size = 4
_pFunc$ = -104						; size = 4
_this$ = -100						; size = 4
_pFunc$ = -96						; size = 4
_this$ = -92						; size = 4
$T3 = -88						; size = 4
_size$ = -84						; size = 4
_this$ = -80						; size = 4
_size$ = -76						; size = 4
_this$ = -72						; size = 4
_pFunc$ = -68						; size = 4
_this$ = -64						; size = 4
_pFunc$ = -60						; size = 4
_this$ = -56						; size = 4
_pFunc$ = -52						; size = 4
_this$ = -48						; size = 4
$T4 = -44						; size = 4
tv207 = -40						; size = 4
$T5 = -36						; size = 4
tv149 = -32						; size = 4
$T6 = -28						; size = 4
tv84 = -24						; size = 4
$T7 = -20						; size = 4
_i$8 = -16						; size = 4
__$EHRec$ = -12						; size = 12
_this$ = 8						; size = 4
_desc$ = 12						; size = 4
_dwUserAcceptInterval$ = 16				; size = 4
_dwServerAcceptInterval$ = 20				; size = 4
_pFunc$ = 24						; size = 4
?CreateNetwork@Co4DyuchiNET@@UAGHPAUDESC_NETWORK@@KKP6GKPAX@Z@Z PROC ; Co4DyuchiNET::CreateNetwork
; File e:\github\mso_code\4dyuchinet_latest\conetwork.cpp
; Line 132
  00000	55		 push	 ebp
  00001	8b ec		 mov	 ebp, esp
  00003	6a ff		 push	 -1
  00005	68 00 00 00 00	 push	 __ehhandler$?CreateNetwork@Co4DyuchiNET@@UAGHPAUDESC_NETWORK@@KKP6GKPAX@Z@Z
  0000a	64 a1 00 00 00
	00		 mov	 eax, DWORD PTR fs:0
  00010	50		 push	 eax
  00011	83 ec 78	 sub	 esp, 120		; 00000078H
  00014	a1 00 00 00 00	 mov	 eax, DWORD PTR ___security_cookie
  00019	33 c5		 xor	 eax, ebp
  0001b	50		 push	 eax
  0001c	8d 45 f4	 lea	 eax, DWORD PTR __$EHRec$[ebp]
  0001f	64 a3 00 00 00
	00		 mov	 DWORD PTR fs:0, eax
; Line 133
  00025	ff 75 0c	 push	 DWORD PTR _desc$[ebp]
  00028	8b 4d 08	 mov	 ecx, DWORD PTR _this$[ebp]
  0002b	e8 00 00 00 00	 call	 ?CheckParameter@Co4DyuchiNET@@AAEHPAUDESC_NETWORK@@@Z ; Co4DyuchiNET::CheckParameter
  00030	85 c0		 test	 eax, eax
  00032	75 07		 jne	 SHORT $LN9@CreateNetw
; Line 134
  00034	33 c0		 xor	 eax, eax
  00036	e9 f9 02 00 00	 jmp	 $LN10@CreateNetw
$LN9@CreateNetw:
; Line 136
  0003b	e8 00 00 00 00	 call	 ?InitSocket@@YAXXZ	; InitSocket
; Line 139
  00040	ff 75 18	 push	 DWORD PTR _pFunc$[ebp]
  00043	e8 00 00 00 00	 call	 ?SetOnInitialFunc@@YAXP6GKPAX@Z@Z ; SetOnInitialFunc
  00048	59		 pop	 ecx
; Line 142
  00049	8b 45 0c	 mov	 eax, DWORD PTR _desc$[ebp]
  0004c	83 38 00	 cmp	 DWORD PTR [eax], 0
  0004f	0f 84 db 00 00
	00		 je	 $LN8@CreateNetw
; Line 144
  00055	6a 78		 push	 120			; 00000078H
  00057	e8 00 00 00 00	 call	 ??2@YAPAXI@Z		; operator new
  0005c	59		 pop	 ecx
  0005d	89 45 ec	 mov	 DWORD PTR $T7[ebp], eax
  00060	83 65 fc 00	 and	 DWORD PTR __$EHRec$[ebp+8], 0
  00064	83 7d ec 00	 cmp	 DWORD PTR $T7[ebp], 0
  00068	74 1d		 je	 SHORT $LN12@CreateNetw
  0006a	8b 45 0c	 mov	 eax, DWORD PTR _desc$[ebp]
  0006d	ff 70 38	 push	 DWORD PTR [eax+56]
  00070	ff 75 10	 push	 DWORD PTR _dwUserAcceptInterval$[ebp]
  00073	8b 45 0c	 mov	 eax, DWORD PTR _desc$[ebp]
  00076	ff 30		 push	 DWORD PTR [eax]
  00078	6a 00		 push	 0
  0007a	8b 4d ec	 mov	 ecx, DWORD PTR $T7[ebp]
  0007d	e8 00 00 00 00	 call	 ??0CNetwork@@QAE@W4NETWORK_ID@@KKK@Z ; CNetwork::CNetwork
  00082	89 45 e8	 mov	 DWORD PTR tv84[ebp], eax
  00085	eb 04		 jmp	 SHORT $LN13@CreateNetw
$LN12@CreateNetw:
  00087	83 65 e8 00	 and	 DWORD PTR tv84[ebp], 0
$LN13@CreateNetw:
  0008b	8b 45 e8	 mov	 eax, DWORD PTR tv84[ebp]
  0008e	89 45 d4	 mov	 DWORD PTR $T4[ebp], eax
  00091	83 4d fc ff	 or	 DWORD PTR __$EHRec$[ebp+8], -1
  00095	8b 45 d4	 mov	 eax, DWORD PTR $T4[ebp]
  00098	a3 00 00 00 00	 mov	 DWORD PTR ?g_pNetworkForUser@@3PAVCNetwork@@A, eax ; g_pNetworkForUser
; Line 145
  0009d	8b 45 0c	 mov	 eax, DWORD PTR _desc$[ebp]
  000a0	ff 70 2c	 push	 DWORD PTR [eax+44]
  000a3	8b 0d 00 00 00
	00		 mov	 ecx, DWORD PTR ?g_pNetworkForUser@@3PAVCNetwork@@A ; g_pNetworkForUser
  000a9	e8 00 00 00 00	 call	 ?SetBufferSizePerConnection@CNetwork@@QAEXK@Z ; CNetwork::SetBufferSizePerConnection
; Line 147
  000ae	8b 45 0c	 mov	 eax, DWORD PTR _desc$[ebp]
  000b1	8b 40 10	 mov	 eax, DWORD PTR [eax+16]
  000b4	89 45 cc	 mov	 DWORD PTR _pFunc$[ebp], eax
  000b7	a1 00 00 00 00	 mov	 eax, DWORD PTR ?g_pNetworkForUser@@3PAVCNetwork@@A ; g_pNetworkForUser
  000bc	89 45 d0	 mov	 DWORD PTR _this$[ebp], eax
; File e:\github\mso_code\4dyuchinet_latest\network.h
; Line 92
  000bf	8b 45 d0	 mov	 eax, DWORD PTR _this$[ebp]
  000c2	8b 4d cc	 mov	 ecx, DWORD PTR _pFunc$[ebp]
  000c5	89 48 58	 mov	 DWORD PTR [eax+88], ecx
; File e:\github\mso_code\4dyuchinet_latest\conetwork.cpp
; Line 148
  000c8	8b 45 0c	 mov	 eax, DWORD PTR _desc$[ebp]
  000cb	8b 40 18	 mov	 eax, DWORD PTR [eax+24]
  000ce	89 45 c4	 mov	 DWORD PTR _pFunc$[ebp], eax
  000d1	a1 00 00 00 00	 mov	 eax, DWORD PTR ?g_pNetworkForUser@@3PAVCNetwork@@A ; g_pNetworkForUser
  000d6	89 45 c8	 mov	 DWORD PTR _this$[ebp], eax
; File e:\github\mso_code\4dyuchinet_latest\network.h
; Line 91
  000d9	8b 45 c8	 mov	 eax, DWORD PTR _this$[ebp]
  000dc	8b 4d c4	 mov	 ecx, DWORD PTR _pFunc$[ebp]
  000df	89 48 5c	 mov	 DWORD PTR [eax+92], ecx
; File e:\github\mso_code\4dyuchinet_latest\conetwork.cpp
; Line 149
  000e2	8b 45 0c	 mov	 eax, DWORD PTR _desc$[ebp]
  000e5	8b 40 08	 mov	 eax, DWORD PTR [eax+8]
  000e8	89 45 bc	 mov	 DWORD PTR _pFunc$[ebp], eax
  000eb	a1 00 00 00 00	 mov	 eax, DWORD PTR ?g_pNetworkForUser@@3PAVCNetwork@@A ; g_pNetworkForUser
  000f0	89 45 c0	 mov	 DWORD PTR _this$[ebp], eax
; File e:\github\mso_code\4dyuchinet_latest\network.h
; Line 90
  000f3	8b 45 c0	 mov	 eax, DWORD PTR _this$[ebp]
  000f6	8b 4d bc	 mov	 ecx, DWORD PTR _pFunc$[ebp]
  000f9	89 48 60	 mov	 DWORD PTR [eax+96], ecx
; File e:\github\mso_code\4dyuchinet_latest\conetwork.cpp
; Line 152
  000fc	8b 45 0c	 mov	 eax, DWORD PTR _desc$[ebp]
  000ff	8b 40 24	 mov	 eax, DWORD PTR [eax+36]
  00102	89 45 b4	 mov	 DWORD PTR _size$[ebp], eax
  00105	a1 00 00 00 00	 mov	 eax, DWORD PTR ?g_pNetworkForUser@@3PAVCNetwork@@A ; g_pNetworkForUser
  0010a	89 45 b8	 mov	 DWORD PTR _this$[ebp], eax
; File e:\github\mso_code\4dyuchinet_latest\network.h
; Line 81
  0010d	8b 45 b8	 mov	 eax, DWORD PTR _this$[ebp]
  00110	8b 4d b4	 mov	 ecx, DWORD PTR _size$[ebp]
  00113	89 48 50	 mov	 DWORD PTR [eax+80], ecx
; File e:\github\mso_code\4dyuchinet_latest\conetwork.cpp
; Line 153
  00116	8b 45 0c	 mov	 eax, DWORD PTR _desc$[ebp]
  00119	8b 40 24	 mov	 eax, DWORD PTR [eax+36]
  0011c	89 45 ac	 mov	 DWORD PTR _size$[ebp], eax
  0011f	a1 00 00 00 00	 mov	 eax, DWORD PTR ?g_pNetworkForUser@@3PAVCNetwork@@A ; g_pNetworkForUser
  00124	89 45 b0	 mov	 DWORD PTR _this$[ebp], eax
; File e:\github\mso_code\4dyuchinet_latest\network.h
; Line 82
  00127	8b 45 b0	 mov	 eax, DWORD PTR _this$[ebp]
  0012a	8b 4d ac	 mov	 ecx, DWORD PTR _size$[ebp]
  0012d	89 48 54	 mov	 DWORD PTR [eax+84], ecx
$LN8@CreateNetw:
; File e:\github\mso_code\4dyuchinet_latest\conetwork.cpp
; Line 157
  00130	8b 45 0c	 mov	 eax, DWORD PTR _desc$[ebp]
  00133	83 78 04 00	 cmp	 DWORD PTR [eax+4], 0
  00137	0f 84 e2 00 00
	00		 je	 $LN7@CreateNetw
; Line 159
  0013d	6a 78		 push	 120			; 00000078H
  0013f	e8 00 00 00 00	 call	 ??2@YAPAXI@Z		; operator new
  00144	59		 pop	 ecx
  00145	89 45 e4	 mov	 DWORD PTR $T6[ebp], eax
  00148	c7 45 fc 01 00
	00 00		 mov	 DWORD PTR __$EHRec$[ebp+8], 1
  0014f	83 7d e4 00	 cmp	 DWORD PTR $T6[ebp], 0
  00153	74 21		 je	 SHORT $LN14@CreateNetw
  00155	8b 45 0c	 mov	 eax, DWORD PTR _desc$[ebp]
  00158	ff 70 38	 push	 DWORD PTR [eax+56]
  0015b	ff 75 14	 push	 DWORD PTR _dwServerAcceptInterval$[ebp]
  0015e	8b 45 0c	 mov	 eax, DWORD PTR _desc$[ebp]
  00161	ff 70 04	 push	 DWORD PTR [eax+4]
  00164	68 00 00 00 80	 push	 -2147483648		; 80000000H
  00169	8b 4d e4	 mov	 ecx, DWORD PTR $T6[ebp]
  0016c	e8 00 00 00 00	 call	 ??0CNetwork@@QAE@W4NETWORK_ID@@KKK@Z ; CNetwork::CNetwork
  00171	89 45 e0	 mov	 DWORD PTR tv149[ebp], eax
  00174	eb 04		 jmp	 SHORT $LN15@CreateNetw
$LN14@CreateNetw:
  00176	83 65 e0 00	 and	 DWORD PTR tv149[ebp], 0
$LN15@CreateNetw:
  0017a	8b 45 e0	 mov	 eax, DWORD PTR tv149[ebp]
  0017d	89 45 a8	 mov	 DWORD PTR $T3[ebp], eax
  00180	83 4d fc ff	 or	 DWORD PTR __$EHRec$[ebp+8], -1
  00184	8b 45 a8	 mov	 eax, DWORD PTR $T3[ebp]
  00187	a3 00 00 00 00	 mov	 DWORD PTR ?g_pNetworkForServer@@3PAVCNetwork@@A, eax ; g_pNetworkForServer
; Line 160
  0018c	8b 45 0c	 mov	 eax, DWORD PTR _desc$[ebp]
  0018f	ff 70 28	 push	 DWORD PTR [eax+40]
  00192	8b 0d 00 00 00
	00		 mov	 ecx, DWORD PTR ?g_pNetworkForServer@@3PAVCNetwork@@A ; g_pNetworkForServer
  00198	e8 00 00 00 00	 call	 ?SetBufferSizePerConnection@CNetwork@@QAEXK@Z ; CNetwork::SetBufferSizePerConnection
; Line 162
  0019d	8b 45 0c	 mov	 eax, DWORD PTR _desc$[ebp]
  001a0	8b 40 14	 mov	 eax, DWORD PTR [eax+20]
  001a3	89 45 a0	 mov	 DWORD PTR _pFunc$[ebp], eax
  001a6	a1 00 00 00 00	 mov	 eax, DWORD PTR ?g_pNetworkForServer@@3PAVCNetwork@@A ; g_pNetworkForServer
  001ab	89 45 a4	 mov	 DWORD PTR _this$[ebp], eax
; File e:\github\mso_code\4dyuchinet_latest\network.h
; Line 92
  001ae	8b 45 a4	 mov	 eax, DWORD PTR _this$[ebp]
  001b1	8b 4d a0	 mov	 ecx, DWORD PTR _pFunc$[ebp]
  001b4	89 48 58	 mov	 DWORD PTR [eax+88], ecx
; File e:\github\mso_code\4dyuchinet_latest\conetwork.cpp
; Line 163
  001b7	8b 45 0c	 mov	 eax, DWORD PTR _desc$[ebp]
  001ba	8b 40 1c	 mov	 eax, DWORD PTR [eax+28]
  001bd	89 45 98	 mov	 DWORD PTR _pFunc$[ebp], eax
  001c0	a1 00 00 00 00	 mov	 eax, DWORD PTR ?g_pNetworkForServer@@3PAVCNetwork@@A ; g_pNetworkForServer
  001c5	89 45 9c	 mov	 DWORD PTR _this$[ebp], eax
; File e:\github\mso_code\4dyuchinet_latest\network.h
; Line 91
  001c8	8b 45 9c	 mov	 eax, DWORD PTR _this$[ebp]
  001cb	8b 4d 98	 mov	 ecx, DWORD PTR _pFunc$[ebp]
  001ce	89 48 5c	 mov	 DWORD PTR [eax+92], ecx
; File e:\github\mso_code\4dyuchinet_latest\conetwork.cpp
; Line 164
  001d1	8b 45 0c	 mov	 eax, DWORD PTR _desc$[ebp]
  001d4	8b 40 0c	 mov	 eax, DWORD PTR [eax+12]
  001d7	89 45 90	 mov	 DWORD PTR _pFunc$[ebp], eax
  001da	a1 00 00 00 00	 mov	 eax, DWORD PTR ?g_pNetworkForServer@@3PAVCNetwork@@A ; g_pNetworkForServer
  001df	89 45 94	 mov	 DWORD PTR _this$[ebp], eax
; File e:\github\mso_code\4dyuchinet_latest\network.h
; Line 90
  001e2	8b 45 94	 mov	 eax, DWORD PTR _this$[ebp]
  001e5	8b 4d 90	 mov	 ecx, DWORD PTR _pFunc$[ebp]
  001e8	89 48 60	 mov	 DWORD PTR [eax+96], ecx
; File e:\github\mso_code\4dyuchinet_latest\conetwork.cpp
; Line 166
  001eb	8b 45 0c	 mov	 eax, DWORD PTR _desc$[ebp]
  001ee	8b 40 20	 mov	 eax, DWORD PTR [eax+32]
  001f1	89 45 88	 mov	 DWORD PTR _size$[ebp], eax
  001f4	a1 00 00 00 00	 mov	 eax, DWORD PTR ?g_pNetworkForServer@@3PAVCNetwork@@A ; g_pNetworkForServer
  001f9	89 45 8c	 mov	 DWORD PTR _this$[ebp], eax
; File e:\github\mso_code\4dyuchinet_latest\network.h
; Line 81
  001fc	8b 45 8c	 mov	 eax, DWORD PTR _this$[ebp]
  001ff	8b 4d 88	 mov	 ecx, DWORD PTR _size$[ebp]
  00202	89 48 50	 mov	 DWORD PTR [eax+80], ecx
; File e:\github\mso_code\4dyuchinet_latest\conetwork.cpp
; Line 167
  00205	8b 45 0c	 mov	 eax, DWORD PTR _desc$[ebp]
  00208	8b 40 20	 mov	 eax, DWORD PTR [eax+32]
  0020b	89 45 80	 mov	 DWORD PTR _size$[ebp], eax
  0020e	a1 00 00 00 00	 mov	 eax, DWORD PTR ?g_pNetworkForServer@@3PAVCNetwork@@A ; g_pNetworkForServer
  00213	89 45 84	 mov	 DWORD PTR _this$[ebp], eax
; File e:\github\mso_code\4dyuchinet_latest\network.h
; Line 82
  00216	8b 45 84	 mov	 eax, DWORD PTR _this$[ebp]
  00219	8b 4d 80	 mov	 ecx, DWORD PTR _size$[ebp]
  0021c	89 48 54	 mov	 DWORD PTR [eax+84], ecx
$LN7@CreateNetw:
; File e:\github\mso_code\4dyuchinet_latest\conetwork.cpp
; Line 170
  0021f	6a 64		 push	 100			; 00000064H
  00221	8b 45 0c	 mov	 eax, DWORD PTR _desc$[ebp]
  00224	ff 70 34	 push	 DWORD PTR [eax+52]
  00227	e8 00 00 00 00	 call	 ?StartPreConnectPool@@YAHKK@Z ; StartPreConnectPool
  0022c	59		 pop	 ecx
  0022d	59		 pop	 ecx
; Line 172
  0022e	e8 00 00 00 00	 call	 ?InitializeTimer@@YAXXZ	; InitializeTimer
; Line 174
  00233	8b 45 0c	 mov	 eax, DWORD PTR _desc$[ebp]
  00236	83 78 3c 00	 cmp	 DWORD PTR [eax+60], 0
  0023a	74 6d		 je	 SHORT $LN6@CreateNetw
; Line 176
  0023c	8b 45 0c	 mov	 eax, DWORD PTR _desc$[ebp]
  0023f	ff 70 3c	 push	 DWORD PTR [eax+60]
  00242	e8 00 00 00 00	 call	 ?SetMainThreadUserDefineEventNum@@YAXK@Z ; SetMainThreadUserDefineEventNum
  00247	59		 pop	 ecx
; Line 178
  00248	83 65 f0 00	 and	 DWORD PTR _i$8[ebp], 0
  0024c	eb 07		 jmp	 SHORT $LN5@CreateNetw
$LN4@CreateNetw:
  0024e	8b 45 f0	 mov	 eax, DWORD PTR _i$8[ebp]
  00251	40		 inc	 eax
  00252	89 45 f0	 mov	 DWORD PTR _i$8[ebp], eax
$LN5@CreateNetw:
  00255	8b 45 0c	 mov	 eax, DWORD PTR _desc$[ebp]
  00258	8b 4d f0	 mov	 ecx, DWORD PTR _i$8[ebp]
  0025b	3b 48 3c	 cmp	 ecx, DWORD PTR [eax+60]
  0025e	73 49		 jae	 SHORT $LN6@CreateNetw
; Line 180
  00260	8b 45 0c	 mov	 eax, DWORD PTR _desc$[ebp]
  00263	8b 40 40	 mov	 eax, DWORD PTR [eax+64]
  00266	8b 4d f0	 mov	 ecx, DWORD PTR _i$8[ebp]
  00269	ff 74 c8 04	 push	 DWORD PTR [eax+ecx*8+4]
  0026d	ff 75 f0	 push	 DWORD PTR _i$8[ebp]
  00270	e8 00 00 00 00	 call	 ?SetMainThreadUserDefineEventFunc@@YAXKP6GXK@Z@Z ; SetMainThreadUserDefineEventFunc
  00275	59		 pop	 ecx
  00276	59		 pop	 ecx
; Line 181
  00277	8b 45 0c	 mov	 eax, DWORD PTR _desc$[ebp]
  0027a	8b 40 40	 mov	 eax, DWORD PTR [eax+64]
  0027d	8b 4d f0	 mov	 ecx, DWORD PTR _i$8[ebp]
  00280	83 3c c8 00	 cmp	 DWORD PTR [eax+ecx*8], 0
  00284	74 21		 je	 SHORT $LN2@CreateNetw
; Line 182
  00286	ff 75 f0	 push	 DWORD PTR _i$8[ebp]
  00289	ff 75 f0	 push	 DWORD PTR _i$8[ebp]
  0028c	e8 00 00 00 00	 call	 ?GetMainThreadUserDefineEvent@@YAPAXK@Z ; GetMainThreadUserDefineEvent
  00291	59		 pop	 ecx
  00292	50		 push	 eax
  00293	8b 45 0c	 mov	 eax, DWORD PTR _desc$[ebp]
  00296	8b 40 40	 mov	 eax, DWORD PTR [eax+64]
  00299	8b 4d f0	 mov	 ecx, DWORD PTR _i$8[ebp]
  0029c	ff 34 c8	 push	 DWORD PTR [eax+ecx*8]
  0029f	e8 00 00 00 00	 call	 ?AddTimer@@YAKKPAXK@Z	; AddTimer
  002a4	83 c4 0c	 add	 esp, 12			; 0000000cH
$LN2@CreateNetw:
; Line 183
  002a7	eb a5		 jmp	 SHORT $LN4@CreateNetw
$LN6@CreateNetw:
; Line 185
  002a9	8b 45 0c	 mov	 eax, DWORD PTR _desc$[ebp]
  002ac	8b 40 38	 mov	 eax, DWORD PTR [eax+56]
  002af	25 f0 00 00 00	 and	 eax, 240		; 000000f0H
  002b4	83 f8 10	 cmp	 eax, 16			; 00000010H
  002b7	75 59		 jne	 SHORT $LN1@CreateNetw
; Line 187
  002b9	68 30 01 00 00	 push	 304			; 00000130H
  002be	e8 00 00 00 00	 call	 ??2@YAPAXI@Z		; operator new
  002c3	59		 pop	 ecx
  002c4	89 45 dc	 mov	 DWORD PTR $T5[ebp], eax
  002c7	c7 45 fc 02 00
	00 00		 mov	 DWORD PTR __$EHRec$[ebp+8], 2
  002ce	83 7d dc 00	 cmp	 DWORD PTR $T5[ebp], 0
  002d2	74 0d		 je	 SHORT $LN16@CreateNetw
  002d4	8b 4d dc	 mov	 ecx, DWORD PTR $T5[ebp]
  002d7	e8 00 00 00 00	 call	 ??0CLogManager@@QAE@XZ	; CLogManager::CLogManager
  002dc	89 45 d8	 mov	 DWORD PTR tv207[ebp], eax
  002df	eb 04		 jmp	 SHORT $LN17@CreateNetw
$LN16@CreateNetw:
  002e1	83 65 d8 00	 and	 DWORD PTR tv207[ebp], 0
$LN17@CreateNetw:
  002e5	8b 45 d8	 mov	 eax, DWORD PTR tv207[ebp]
  002e8	89 85 7c ff ff
	ff		 mov	 DWORD PTR $T2[ebp], eax
  002ee	83 4d fc ff	 or	 DWORD PTR __$EHRec$[ebp+8], -1
  002f2	8b 85 7c ff ff
	ff		 mov	 eax, DWORD PTR $T2[ebp]
  002f8	a3 00 00 00 00	 mov	 DWORD PTR ?g_pLogManager@@3PAVCLogManager@@A, eax ; g_pLogManager
; Line 188
  002fd	68 00 20 00 00	 push	 8192			; 00002000H
  00302	68 00 00 00 00	 push	 OFFSET $SG92448
  00307	8b 0d 00 00 00
	00		 mov	 ecx, DWORD PTR ?g_pLogManager@@3PAVCLogManager@@A ; g_pLogManager
  0030d	e8 00 00 00 00	 call	 ?Initialize@CLogManager@@QAEHPADK@Z ; CLogManager::Initialize
$LN1@CreateNetw:
; Line 192
  00312	8b 45 0c	 mov	 eax, DWORD PTR _desc$[ebp]
  00315	ff 70 38	 push	 DWORD PTR [eax+56]
  00318	e8 00 00 00 00	 call	 ?StartMainThread@@YAHK@Z ; StartMainThread
  0031d	59		 pop	 ecx
; Line 194
  0031e	e8 00 00 00 00	 call	 ?GetMainThreadMsgEvent@@YAPAXXZ ; GetMainThreadMsgEvent
  00323	50		 push	 eax
  00324	8b 45 0c	 mov	 eax, DWORD PTR _desc$[ebp]
  00327	ff 70 30	 push	 DWORD PTR [eax+48]
  0032a	e8 00 00 00 00	 call	 ?InitCompletionIO@@YAHKPAX@Z ; InitCompletionIO
  0032f	59		 pop	 ecx
  00330	59		 pop	 ecx
; Line 196
  00331	33 c0		 xor	 eax, eax
  00333	40		 inc	 eax
$LN10@CreateNetw:
; Line 197
  00334	8b 4d f4	 mov	 ecx, DWORD PTR __$EHRec$[ebp]
  00337	64 89 0d 00 00
	00 00		 mov	 DWORD PTR fs:0, ecx
  0033e	59		 pop	 ecx
  0033f	8b e5		 mov	 esp, ebp
  00341	5d		 pop	 ebp
  00342	c2 14 00	 ret	 20			; 00000014H
_TEXT	ENDS
text$x	SEGMENT
__unwindfunclet$?CreateNetwork@Co4DyuchiNET@@UAGHPAUDESC_NETWORK@@KKP6GKPAX@Z@Z$0:
  00000	ff 75 ec	 push	 DWORD PTR $T7[ebp]
  00003	e8 00 00 00 00	 call	 ??3@YAXPAX@Z		; operator delete
  00008	59		 pop	 ecx
  00009	c3		 ret	 0
__unwindfunclet$?CreateNetwork@Co4DyuchiNET@@UAGHPAUDESC_NETWORK@@KKP6GKPAX@Z@Z$1:
  0000a	ff 75 e4	 push	 DWORD PTR $T6[ebp]
  0000d	e8 00 00 00 00	 call	 ??3@YAXPAX@Z		; operator delete
  00012	59		 pop	 ecx
  00013	c3		 ret	 0
__unwindfunclet$?CreateNetwork@Co4DyuchiNET@@UAGHPAUDESC_NETWORK@@KKP6GKPAX@Z@Z$2:
  00014	ff 75 dc	 push	 DWORD PTR $T5[ebp]
  00017	e8 00 00 00 00	 call	 ??3@YAXPAX@Z		; operator delete
  0001c	59		 pop	 ecx
  0001d	c3		 ret	 0
__ehhandler$?CreateNetwork@Co4DyuchiNET@@UAGHPAUDESC_NETWORK@@KKP6GKPAX@Z@Z:
  0001e	8b 54 24 08	 mov	 edx, DWORD PTR [esp+8]
  00022	8d 42 0c	 lea	 eax, DWORD PTR [edx+12]
  00025	8b 4a 84	 mov	 ecx, DWORD PTR [edx-124]
  00028	33 c8		 xor	 ecx, eax
  0002a	e8 00 00 00 00	 call	 @__security_check_cookie@4
  0002f	b8 00 00 00 00	 mov	 eax, OFFSET __ehfuncinfo$?CreateNetwork@Co4DyuchiNET@@UAGHPAUDESC_NETWORK@@KKP6GKPAX@Z@Z
  00034	e9 00 00 00 00	 jmp	 ___CxxFrameHandler3
text$x	ENDS
?CreateNetwork@Co4DyuchiNET@@UAGHPAUDESC_NETWORK@@KKP6GKPAX@Z@Z ENDP ; Co4DyuchiNET::CreateNetwork
; Function compile flags: /Odspy
_TEXT	SEGMENT
tv74 = -12						; size = 4
$T1 = -8						; size = 4
$T2 = -4						; size = 4
_this$ = 8						; size = 4
?Release@Co4DyuchiNET@@UAGKXZ PROC			; Co4DyuchiNET::Release
; File e:\github\mso_code\4dyuchinet_latest\conetwork.cpp
; Line 41
  00000	55		 push	 ebp
  00001	8b ec		 mov	 ebp, esp
  00003	83 ec 0c	 sub	 esp, 12			; 0000000cH
; Line 42
  00006	8b 45 08	 mov	 eax, DWORD PTR _this$[ebp]
  00009	8b 40 04	 mov	 eax, DWORD PTR [eax+4]
  0000c	48		 dec	 eax
  0000d	8b 4d 08	 mov	 ecx, DWORD PTR _this$[ebp]
  00010	89 41 04	 mov	 DWORD PTR [ecx+4], eax
; Line 43
  00013	8b 45 08	 mov	 eax, DWORD PTR _this$[ebp]
  00016	83 78 04 00	 cmp	 DWORD PTR [eax+4], 0
  0001a	75 37		 jne	 SHORT $LN1@Release
; Line 44
  0001c	8b 45 08	 mov	 eax, DWORD PTR _this$[ebp]
  0001f	89 45 f8	 mov	 DWORD PTR $T1[ebp], eax
  00022	8b 45 f8	 mov	 eax, DWORD PTR $T1[ebp]
  00025	89 45 fc	 mov	 DWORD PTR $T2[ebp], eax
  00028	83 7d fc 00	 cmp	 DWORD PTR $T2[ebp], 0
  0002c	74 21		 je	 SHORT $LN4@Release
  0002e	8b 4d fc	 mov	 ecx, DWORD PTR $T2[ebp]
  00031	e8 00 00 00 00	 call	 ??1Co4DyuchiNET@@QAE@XZ	; Co4DyuchiNET::~Co4DyuchiNET
  00036	33 c0		 xor	 eax, eax
  00038	40		 inc	 eax
  00039	83 e0 01	 and	 eax, 1
  0003c	74 09		 je	 SHORT $LN7@Release
  0003e	ff 75 fc	 push	 DWORD PTR $T2[ebp]
  00041	e8 00 00 00 00	 call	 ??3@YAXPAX@Z		; operator delete
  00046	59		 pop	 ecx
$LN7@Release:
  00047	8b 45 fc	 mov	 eax, DWORD PTR $T2[ebp]
  0004a	89 45 f4	 mov	 DWORD PTR tv74[ebp], eax
  0004d	eb 04		 jmp	 SHORT $LN1@Release
$LN4@Release:
  0004f	83 65 f4 00	 and	 DWORD PTR tv74[ebp], 0
$LN1@Release:
; Line 46
  00053	33 c0		 xor	 eax, eax
; Line 47
  00055	8b e5		 mov	 esp, ebp
  00057	5d		 pop	 ebp
  00058	c2 04 00	 ret	 4
?Release@Co4DyuchiNET@@UAGKXZ ENDP			; Co4DyuchiNET::Release
_TEXT	ENDS
; Function compile flags: /Odspy
_TEXT	SEGMENT
_this$ = 8						; size = 4
?AddRef@Co4DyuchiNET@@UAGKXZ PROC			; Co4DyuchiNET::AddRef
; File e:\github\mso_code\4dyuchinet_latest\conetwork.cpp
; Line 36
  00000	55		 push	 ebp
  00001	8b ec		 mov	 ebp, esp
; Line 37
  00003	8b 45 08	 mov	 eax, DWORD PTR _this$[ebp]
  00006	8b 40 04	 mov	 eax, DWORD PTR [eax+4]
  00009	40		 inc	 eax
  0000a	8b 4d 08	 mov	 ecx, DWORD PTR _this$[ebp]
  0000d	89 41 04	 mov	 DWORD PTR [ecx+4], eax
; Line 38
  00010	8b 45 08	 mov	 eax, DWORD PTR _this$[ebp]
  00013	8b 40 04	 mov	 eax, DWORD PTR [eax+4]
; Line 39
  00016	5d		 pop	 ebp
  00017	c2 04 00	 ret	 4
?AddRef@Co4DyuchiNET@@UAGKXZ ENDP			; Co4DyuchiNET::AddRef
_TEXT	ENDS
; Function compile flags: /Odspy
_TEXT	SEGMENT
tv134 = -24						; size = 4
tv93 = -20						; size = 4
tv128 = -16						; size = 4
tv136 = -12						; size = 4
tv87 = -8						; size = 4
tv95 = -4						; size = 4
_this$ = 8						; size = 4
_refiid$ = 12						; size = 4
_ppv$ = 16						; size = 4
?QueryInterface@Co4DyuchiNET@@UAGJABU_GUID@@PAPAX@Z PROC ; Co4DyuchiNET::QueryInterface
; File e:\github\mso_code\4dyuchinet_latest\conetwork.cpp
; Line 21
  00000	55		 push	 ebp
  00001	8b ec		 mov	 ebp, esp
  00003	83 ec 18	 sub	 esp, 24			; 00000018H
; File c:\program files (x86)\windows kits\8.1\include\shared\guiddef.h
; Line 161
  00006	6a 10		 push	 16			; 00000010H
  00008	ff 75 0c	 push	 DWORD PTR _refiid$[ebp]
  0000b	68 00 00 00 00	 push	 OFFSET _IID_IUnknown
  00010	e8 00 00 00 00	 call	 _memcmp
  00015	83 c4 0c	 add	 esp, 12			; 0000000cH
  00018	89 45 ec	 mov	 DWORD PTR tv93[ebp], eax
  0001b	83 7d ec 00	 cmp	 DWORD PTR tv93[ebp], 0
  0001f	75 09		 jne	 SHORT $LN13@QueryInter
  00021	c7 45 fc 01 00
	00 00		 mov	 DWORD PTR tv95[ebp], 1
  00028	eb 04		 jmp	 SHORT $LN11@QueryInter
$LN13@QueryInter:
  0002a	83 65 fc 00	 and	 DWORD PTR tv95[ebp], 0
$LN11@QueryInter:
; Line 194
  0002e	83 7d fc 00	 cmp	 DWORD PTR tv95[ebp], 0
  00032	74 09		 je	 SHORT $LN9@QueryInter
  00034	c7 45 f8 01 00
	00 00		 mov	 DWORD PTR tv87[ebp], 1
  0003b	eb 04		 jmp	 SHORT $LN7@QueryInter
$LN9@QueryInter:
  0003d	83 65 f8 00	 and	 DWORD PTR tv87[ebp], 0
$LN7@QueryInter:
; File e:\github\mso_code\4dyuchinet_latest\conetwork.cpp
; Line 22
  00041	0f b6 45 f8	 movzx	 eax, BYTE PTR tv87[ebp]
  00045	85 c0		 test	 eax, eax
  00047	74 0a		 je	 SHORT $LN4@QueryInter
; Line 23
  00049	8b 45 10	 mov	 eax, DWORD PTR _ppv$[ebp]
  0004c	8b 4d 08	 mov	 ecx, DWORD PTR _this$[ebp]
  0004f	89 08		 mov	 DWORD PTR [eax], ecx
; Line 24
  00051	eb 5a		 jmp	 SHORT $LN3@QueryInter
$LN4@QueryInter:
; File c:\program files (x86)\windows kits\8.1\include\shared\guiddef.h
; Line 161
  00053	6a 10		 push	 16			; 00000010H
  00055	ff 75 0c	 push	 DWORD PTR _refiid$[ebp]
  00058	68 00 00 00 00	 push	 OFFSET _IID_4DyuchiNET
  0005d	e8 00 00 00 00	 call	 _memcmp
  00062	83 c4 0c	 add	 esp, 12			; 0000000cH
  00065	89 45 e8	 mov	 DWORD PTR tv134[ebp], eax
  00068	83 7d e8 00	 cmp	 DWORD PTR tv134[ebp], 0
  0006c	75 09		 jne	 SHORT $LN21@QueryInter
  0006e	c7 45 f4 01 00
	00 00		 mov	 DWORD PTR tv136[ebp], 1
  00075	eb 04		 jmp	 SHORT $LN19@QueryInter
$LN21@QueryInter:
  00077	83 65 f4 00	 and	 DWORD PTR tv136[ebp], 0
$LN19@QueryInter:
; Line 194
  0007b	83 7d f4 00	 cmp	 DWORD PTR tv136[ebp], 0
  0007f	74 09		 je	 SHORT $LN17@QueryInter
  00081	c7 45 f0 01 00
	00 00		 mov	 DWORD PTR tv128[ebp], 1
  00088	eb 04		 jmp	 SHORT $LN15@QueryInter
$LN17@QueryInter:
  0008a	83 65 f0 00	 and	 DWORD PTR tv128[ebp], 0
$LN15@QueryInter:
; File e:\github\mso_code\4dyuchinet_latest\conetwork.cpp
; Line 24
  0008e	0f b6 45 f0	 movzx	 eax, BYTE PTR tv128[ebp]
  00092	85 c0		 test	 eax, eax
  00094	74 0a		 je	 SHORT $LN2@QueryInter
; Line 25
  00096	8b 45 10	 mov	 eax, DWORD PTR _ppv$[ebp]
  00099	8b 4d 08	 mov	 ecx, DWORD PTR _this$[ebp]
  0009c	89 08		 mov	 DWORD PTR [eax], ecx
; Line 26
  0009e	eb 0d		 jmp	 SHORT $LN3@QueryInter
$LN2@QueryInter:
; Line 28
  000a0	8b 45 10	 mov	 eax, DWORD PTR _ppv$[ebp]
  000a3	83 20 00	 and	 DWORD PTR [eax], 0
; Line 29
  000a6	b8 02 40 00 80	 mov	 eax, -2147467262	; 80004002H
  000ab	eb 11		 jmp	 SHORT $LN5@QueryInter
$LN3@QueryInter:
; Line 31
  000ad	8b 45 10	 mov	 eax, DWORD PTR _ppv$[ebp]
  000b0	8b 00		 mov	 eax, DWORD PTR [eax]
  000b2	8b 4d 10	 mov	 ecx, DWORD PTR _ppv$[ebp]
  000b5	8b 00		 mov	 eax, DWORD PTR [eax]
  000b7	ff 31		 push	 DWORD PTR [ecx]
  000b9	ff 50 04	 call	 DWORD PTR [eax+4]
; Line 32
  000bc	33 c0		 xor	 eax, eax
$LN5@QueryInter:
; Line 34
  000be	8b e5		 mov	 esp, ebp
  000c0	5d		 pop	 ebp
  000c1	c2 0c 00	 ret	 12			; 0000000cH
?QueryInterface@Co4DyuchiNET@@UAGJABU_GUID@@PAPAX@Z ENDP ; Co4DyuchiNET::QueryInterface
_TEXT	ENDS
END
