; Listing generated by Microsoft (R) Optimizing Compiler Version 18.00.30501.0 

	TITLE	E:\GitHub\Mso_Code\4DyuchiNET_Latest\connect_que.cpp
	.686P
	.XMM
	include listing.inc
	.model	flat

INCLUDELIB LIBCMT
INCLUDELIB OLDNAMES

PUBLIC	?Initialize@CConnectQue@@QAEHK@Z		; CConnectQue::Initialize
PUBLIC	?PushConnectItem@CConnectQue@@QAEHPAUCONNECT_ITEM@@@Z ; CConnectQue::PushConnectItem
PUBLIC	?GetConnectItem@CConnectQue@@QAEPAUCONNECT_ITEM@@K@Z ; CConnectQue::GetConnectItem
PUBLIC	??0CConnectQue@@QAE@XZ				; CConnectQue::CConnectQue
PUBLIC	??1CConnectQue@@QAE@XZ				; CConnectQue::~CConnectQue
EXTRN	??2@YAPAXI@Z:PROC				; operator new
EXTRN	??3@YAXPAX@Z:PROC				; operator delete
EXTRN	_memset:PROC
; Function compile flags: /Odspy
_TEXT	SEGMENT
$T1 = -8						; size = 4
_this$ = -4						; size = 4
??1CConnectQue@@QAE@XZ PROC				; CConnectQue::~CConnectQue
; _this$ = ecx
; File e:\github\mso_code\4dyuchinet_latest\connect_que.cpp
; Line 41
  00000	55		 push	 ebp
  00001	8b ec		 mov	 ebp, esp
  00003	51		 push	 ecx
  00004	51		 push	 ecx
  00005	89 4d fc	 mov	 DWORD PTR _this$[ebp], ecx
; Line 42
  00008	8b 45 fc	 mov	 eax, DWORD PTR _this$[ebp]
  0000b	83 38 00	 cmp	 DWORD PTR [eax], 0
  0000e	74 17		 je	 SHORT $LN2@CConnectQu
; Line 44
  00010	8b 45 fc	 mov	 eax, DWORD PTR _this$[ebp]
  00013	8b 00		 mov	 eax, DWORD PTR [eax]
  00015	89 45 f8	 mov	 DWORD PTR $T1[ebp], eax
  00018	ff 75 f8	 push	 DWORD PTR $T1[ebp]
  0001b	e8 00 00 00 00	 call	 ??3@YAXPAX@Z		; operator delete
  00020	59		 pop	 ecx
; Line 45
  00021	8b 45 fc	 mov	 eax, DWORD PTR _this$[ebp]
  00024	83 20 00	 and	 DWORD PTR [eax], 0
$LN2@CConnectQu:
; Line 48
  00027	8b e5		 mov	 esp, ebp
  00029	5d		 pop	 ebp
  0002a	c3		 ret	 0
??1CConnectQue@@QAE@XZ ENDP				; CConnectQue::~CConnectQue
_TEXT	ENDS
; Function compile flags: /Odspy
_TEXT	SEGMENT
_this$ = -4						; size = 4
??0CConnectQue@@QAE@XZ PROC				; CConnectQue::CConnectQue
; _this$ = ecx
; File e:\github\mso_code\4dyuchinet_latest\connect_que.cpp
; Line 6
  00000	55		 push	 ebp
  00001	8b ec		 mov	 ebp, esp
  00003	51		 push	 ecx
  00004	89 4d fc	 mov	 DWORD PTR _this$[ebp], ecx
; Line 7
  00007	8b 45 fc	 mov	 eax, DWORD PTR _this$[ebp]
  0000a	83 20 00	 and	 DWORD PTR [eax], 0
; Line 8
  0000d	8b 45 fc	 mov	 eax, DWORD PTR _this$[ebp]
  00010	83 60 04 00	 and	 DWORD PTR [eax+4], 0
; Line 9
  00014	8b 45 fc	 mov	 eax, DWORD PTR _this$[ebp]
  00017	83 60 08 00	 and	 DWORD PTR [eax+8], 0
; Line 11
  0001b	8b 45 fc	 mov	 eax, DWORD PTR _this$[ebp]
  0001e	8b e5		 mov	 esp, ebp
  00020	5d		 pop	 ebp
  00021	c3		 ret	 0
??0CConnectQue@@QAE@XZ ENDP				; CConnectQue::CConnectQue
_TEXT	ENDS
; Function compile flags: /Odspy
_TEXT	SEGMENT
_this$ = -4						; size = 4
_dwIndex$ = 8						; size = 4
?GetConnectItem@CConnectQue@@QAEPAUCONNECT_ITEM@@K@Z PROC ; CConnectQue::GetConnectItem
; _this$ = ecx
; File e:\github\mso_code\4dyuchinet_latest\connect_que.cpp
; Line 23
  00000	55		 push	 ebp
  00001	8b ec		 mov	 ebp, esp
  00003	51		 push	 ecx
  00004	89 4d fc	 mov	 DWORD PTR _this$[ebp], ecx
; Line 24
  00007	8b 45 fc	 mov	 eax, DWORD PTR _this$[ebp]
  0000a	8b 4d 08	 mov	 ecx, DWORD PTR _dwIndex$[ebp]
  0000d	3b 48 04	 cmp	 ecx, DWORD PTR [eax+4]
  00010	72 04		 jb	 SHORT $LN1@GetConnect
; Line 25
  00012	33 c0		 xor	 eax, eax
  00014	eb 09		 jmp	 SHORT $LN2@GetConnect
$LN1@GetConnect:
; Line 28
  00016	6b 45 08 24	 imul	 eax, DWORD PTR _dwIndex$[ebp], 36
  0001a	8b 4d fc	 mov	 ecx, DWORD PTR _this$[ebp]
  0001d	03 01		 add	 eax, DWORD PTR [ecx]
$LN2@GetConnect:
; Line 29
  0001f	8b e5		 mov	 esp, ebp
  00021	5d		 pop	 ebp
  00022	c2 04 00	 ret	 4
?GetConnectItem@CConnectQue@@QAEPAUCONNECT_ITEM@@K@Z ENDP ; CConnectQue::GetConnectItem
_TEXT	ENDS
; Function compile flags: /Odspy
_TEXT	SEGMENT
_this$ = -4						; size = 4
_pItem$ = 8						; size = 4
?PushConnectItem@CConnectQue@@QAEHPAUCONNECT_ITEM@@@Z PROC ; CConnectQue::PushConnectItem
; _this$ = ecx
; File e:\github\mso_code\4dyuchinet_latest\connect_que.cpp
; Line 13
  00000	55		 push	 ebp
  00001	8b ec		 mov	 ebp, esp
  00003	51		 push	 ecx
  00004	56		 push	 esi
  00005	57		 push	 edi
  00006	89 4d fc	 mov	 DWORD PTR _this$[ebp], ecx
; Line 14
  00009	8b 45 fc	 mov	 eax, DWORD PTR _this$[ebp]
  0000c	8b 4d fc	 mov	 ecx, DWORD PTR _this$[ebp]
  0000f	8b 40 04	 mov	 eax, DWORD PTR [eax+4]
  00012	3b 41 08	 cmp	 eax, DWORD PTR [ecx+8]
  00015	72 04		 jb	 SHORT $LN1@PushConnec
; Line 15
  00017	33 c0		 xor	 eax, eax
  00019	eb 26		 jmp	 SHORT $LN2@PushConnec
$LN1@PushConnec:
; Line 17
  0001b	8b 45 fc	 mov	 eax, DWORD PTR _this$[ebp]
  0001e	6b 40 04 24	 imul	 eax, DWORD PTR [eax+4], 36
  00022	8b 4d fc	 mov	 ecx, DWORD PTR _this$[ebp]
  00025	8b 39		 mov	 edi, DWORD PTR [ecx]
  00027	03 f8		 add	 edi, eax
  00029	6a 09		 push	 9
  0002b	59		 pop	 ecx
  0002c	8b 75 08	 mov	 esi, DWORD PTR _pItem$[ebp]
  0002f	f3 a5		 rep movsd
; Line 18
  00031	8b 45 fc	 mov	 eax, DWORD PTR _this$[ebp]
  00034	8b 40 04	 mov	 eax, DWORD PTR [eax+4]
  00037	40		 inc	 eax
  00038	8b 4d fc	 mov	 ecx, DWORD PTR _this$[ebp]
  0003b	89 41 04	 mov	 DWORD PTR [ecx+4], eax
; Line 20
  0003e	33 c0		 xor	 eax, eax
  00040	40		 inc	 eax
$LN2@PushConnec:
; Line 21
  00041	5f		 pop	 edi
  00042	5e		 pop	 esi
  00043	8b e5		 mov	 esp, ebp
  00045	5d		 pop	 ebp
  00046	c2 04 00	 ret	 4
?PushConnectItem@CConnectQue@@QAEHPAUCONNECT_ITEM@@@Z ENDP ; CConnectQue::PushConnectItem
_TEXT	ENDS
; Function compile flags: /Odspy
_TEXT	SEGMENT
$T1 = -8						; size = 4
_this$ = -4						; size = 4
_dwMaxConnectAtSameTime$ = 8				; size = 4
?Initialize@CConnectQue@@QAEHK@Z PROC			; CConnectQue::Initialize
; _this$ = ecx
; File e:\github\mso_code\4dyuchinet_latest\connect_que.cpp
; Line 32
  00000	55		 push	 ebp
  00001	8b ec		 mov	 ebp, esp
  00003	51		 push	 ecx
  00004	51		 push	 ecx
  00005	89 4d fc	 mov	 DWORD PTR _this$[ebp], ecx
; Line 33
  00008	8b 45 fc	 mov	 eax, DWORD PTR _this$[ebp]
  0000b	8b 4d 08	 mov	 ecx, DWORD PTR _dwMaxConnectAtSameTime$[ebp]
  0000e	89 48 08	 mov	 DWORD PTR [eax+8], ecx
; Line 34
  00011	33 c9		 xor	 ecx, ecx
  00013	8b 45 08	 mov	 eax, DWORD PTR _dwMaxConnectAtSameTime$[ebp]
  00016	6a 24		 push	 36			; 00000024H
  00018	5a		 pop	 edx
  00019	f7 e2		 mul	 edx
  0001b	0f 90 c1	 seto	 cl
  0001e	f7 d9		 neg	 ecx
  00020	0b c8		 or	 ecx, eax
  00022	51		 push	 ecx
  00023	e8 00 00 00 00	 call	 ??2@YAPAXI@Z		; operator new
  00028	59		 pop	 ecx
  00029	89 45 f8	 mov	 DWORD PTR $T1[ebp], eax
  0002c	8b 45 fc	 mov	 eax, DWORD PTR _this$[ebp]
  0002f	8b 4d f8	 mov	 ecx, DWORD PTR $T1[ebp]
  00032	89 08		 mov	 DWORD PTR [eax], ecx
; Line 35
  00034	8b 45 fc	 mov	 eax, DWORD PTR _this$[ebp]
  00037	6b 40 08 24	 imul	 eax, DWORD PTR [eax+8], 36
  0003b	50		 push	 eax
  0003c	6a 00		 push	 0
  0003e	8b 45 fc	 mov	 eax, DWORD PTR _this$[ebp]
  00041	ff 30		 push	 DWORD PTR [eax]
  00043	e8 00 00 00 00	 call	 _memset
  00048	83 c4 0c	 add	 esp, 12			; 0000000cH
; Line 37
  0004b	33 c0		 xor	 eax, eax
  0004d	40		 inc	 eax
; Line 38
  0004e	8b e5		 mov	 esp, ebp
  00050	5d		 pop	 ebp
  00051	c2 04 00	 ret	 4
?Initialize@CConnectQue@@QAEHK@Z ENDP			; CConnectQue::Initialize
_TEXT	ENDS
END
