; Listing generated by Microsoft (R) Optimizing Compiler Version 18.00.30501.0 

	TITLE	E:\GitHub\Mso_Code\4DyuchiNET_Latest\exception.cpp
	.686P
	.XMM
	include listing.inc
	.model	flat

INCLUDELIB LIBCMT
INCLUDELIB OLDNAMES

CONST	SEGMENT
$SG90830 DB	'at', 00H
	ORG $+1
$SG90831 DB	'exception.dump', 00H
	ORG $+1
$SG90832 DB	'%d year, %d month, %d day,%d hour, %d minute, %d second', 0aH
	DB	00H
	ORG $+3
$SG90833 DB	'%s', 0aH, 00H
$SG90834 DB	'Crashed address %xh ', 0aH, 00H
	ORG $+2
$SG90835 DB	'Exception Code %u ', 0aH, 00H
$SG90836 DB	'Exception Flag %xh ', 0aH, 00H
	ORG $+3
$SG90837 DB	'NumberParameters %d ', 0aH, 00H
	ORG $+2
$SG90838 DB	'Dr0 %xh ', 0aH, 00H
	ORG $+2
$SG90839 DB	'Dr1 %xh ', 0aH, 00H
	ORG $+2
$SG90840 DB	'Dr2 %xh ', 0aH, 00H
	ORG $+2
$SG90841 DB	'Dr3 %xh ', 0aH, 00H
	ORG $+2
$SG90842 DB	'Dr6 %xh ', 0aH, 00H
	ORG $+2
$SG90843 DB	'Dr7 %xh ', 0aH, 00H
	ORG $+2
$SG90844 DB	'SegGs %xh ', 0aH, 00H
$SG90845 DB	'SegFs %xh ', 0aH, 00H
$SG90846 DB	'SegEs %xh ', 0aH, 00H
$SG90847 DB	'EFlags %xh ', 0aH, 00H
	ORG $+3
$SG90848 DB	'Esi %xh ', 0aH, 00H
	ORG $+2
$SG90849 DB	'Edi %xh ', 0aH, 00H
	ORG $+2
$SG90850 DB	'Ebp %xh ', 0aH, 00H
	ORG $+2
$SG90851 DB	'Esp %xh ', 0aH, 00H
	ORG $+2
$SG90852 DB	'Eip %xh ', 0aH, 00H
	ORG $+2
$SG90853 DB	'Eax %xh ', 0aH, 00H
	ORG $+2
$SG90854 DB	'Ebx %xh ', 0aH, 00H
	ORG $+2
$SG90855 DB	'Ecx %xh ', 0aH, 00H
	ORG $+2
$SG90856 DB	'Edx %xh ', 0aH, 00H
	ORG $+2
$SG90857 DB	0aH, 0aH, 00H
	ORG $+1
$SG90858 DB	'Exception', 00H
	ORG $+2
$SG90859 DB	'Exception Occured.Reference exception.dump file', 00H
CONST	ENDS
PUBLIC	?DumpException@@YAHPAU_EXCEPTION_POINTERS@@PAD@Z ; DumpException
EXTRN	__imp__GetLocalTime@4:PROC
EXTRN	__imp__MessageBoxA@16:PROC
EXTRN	_fclose:PROC
EXTRN	_fopen_s:PROC
EXTRN	_fprintf:PROC
EXTRN	@__security_check_cookie@4:PROC
EXTRN	___security_cookie:DWORD
; Function compile flags: /Odspy
_TEXT	SEGMENT
_dwExceptionCode$ = -120				; size = 4
_dwDr3$ = -116						; size = 4
_result$ = -112						; size = 4
_dwExceptionAddress$ = -108				; size = 4
_dwEdx$ = -104						; size = 4
_dwNumberParameters$ = -100				; size = 4
_dwEcx$ = -96						; size = 4
_dwDr7$ = -92						; size = 4
_dwEbx$ = -88						; size = 4
_dwDr1$ = -84						; size = 4
_dwEax$ = -80						; size = 4
_dwSegEs$ = -76						; size = 4
_dwEip$ = -72						; size = 4
_dwSegGs$ = -68						; size = 4
_dwEsp$ = -64						; size = 4
_dwDr6$ = -60						; size = 4
_dwEbp$ = -56						; size = 4
_dwDr2$ = -52						; size = 4
_dwEdi$ = -48						; size = 4
_dwDr0$ = -44						; size = 4
_dwEsi$ = -40						; size = 4
_dwExceptionFlags$ = -36				; size = 4
_dwEFlags$ = -32					; size = 4
_dwSegFs$ = -28						; size = 4
_fp$ = -24						; size = 4
_time$ = -20						; size = 16
__$ArrayPad$ = -4					; size = 4
_lpExcep$ = 8						; size = 4
_szOutMsg$ = 12						; size = 4
?DumpException@@YAHPAU_EXCEPTION_POINTERS@@PAD@Z PROC	; DumpException
; File e:\github\mso_code\4dyuchinet_latest\exception.cpp
; Line 4
  00000	55		 push	 ebp
  00001	8b ec		 mov	 ebp, esp
  00003	83 ec 78	 sub	 esp, 120		; 00000078H
  00006	a1 00 00 00 00	 mov	 eax, DWORD PTR ___security_cookie
  0000b	33 c5		 xor	 eax, ebp
  0000d	89 45 fc	 mov	 DWORD PTR __$ArrayPad$[ebp], eax
; Line 5
  00010	83 7d 08 00	 cmp	 DWORD PTR _lpExcep$[ebp], 0
  00014	75 07		 jne	 SHORT $LN1@DumpExcept
; Line 6
  00016	33 c0		 xor	 eax, eax
  00018	e9 85 03 00 00	 jmp	 $LN2@DumpExcept
$LN1@DumpExcept:
; Line 8
  0001d	c7 45 90 01 00
	00 00		 mov	 DWORD PTR _result$[ebp], 1
; Line 10
  00024	83 65 e8 00	 and	 DWORD PTR _fp$[ebp], 0
; Line 12
  00028	8b 45 08	 mov	 eax, DWORD PTR _lpExcep$[ebp]
  0002b	8b 00		 mov	 eax, DWORD PTR [eax]
  0002d	8b 40 0c	 mov	 eax, DWORD PTR [eax+12]
  00030	89 45 94	 mov	 DWORD PTR _dwExceptionAddress$[ebp], eax
; Line 13
  00033	8b 45 08	 mov	 eax, DWORD PTR _lpExcep$[ebp]
  00036	8b 00		 mov	 eax, DWORD PTR [eax]
  00038	8b 00		 mov	 eax, DWORD PTR [eax]
  0003a	89 45 88	 mov	 DWORD PTR _dwExceptionCode$[ebp], eax
; Line 14
  0003d	8b 45 08	 mov	 eax, DWORD PTR _lpExcep$[ebp]
  00040	8b 00		 mov	 eax, DWORD PTR [eax]
  00042	8b 40 04	 mov	 eax, DWORD PTR [eax+4]
  00045	89 45 dc	 mov	 DWORD PTR _dwExceptionFlags$[ebp], eax
; Line 15
  00048	8b 45 08	 mov	 eax, DWORD PTR _lpExcep$[ebp]
  0004b	8b 00		 mov	 eax, DWORD PTR [eax]
  0004d	8b 40 10	 mov	 eax, DWORD PTR [eax+16]
  00050	89 45 9c	 mov	 DWORD PTR _dwNumberParameters$[ebp], eax
; Line 16
  00053	8b 45 08	 mov	 eax, DWORD PTR _lpExcep$[ebp]
  00056	8b 40 04	 mov	 eax, DWORD PTR [eax+4]
  00059	8b 40 04	 mov	 eax, DWORD PTR [eax+4]
  0005c	89 45 d4	 mov	 DWORD PTR _dwDr0$[ebp], eax
; Line 17
  0005f	8b 45 08	 mov	 eax, DWORD PTR _lpExcep$[ebp]
  00062	8b 40 04	 mov	 eax, DWORD PTR [eax+4]
  00065	8b 40 08	 mov	 eax, DWORD PTR [eax+8]
  00068	89 45 ac	 mov	 DWORD PTR _dwDr1$[ebp], eax
; Line 18
  0006b	8b 45 08	 mov	 eax, DWORD PTR _lpExcep$[ebp]
  0006e	8b 40 04	 mov	 eax, DWORD PTR [eax+4]
  00071	8b 40 0c	 mov	 eax, DWORD PTR [eax+12]
  00074	89 45 cc	 mov	 DWORD PTR _dwDr2$[ebp], eax
; Line 19
  00077	8b 45 08	 mov	 eax, DWORD PTR _lpExcep$[ebp]
  0007a	8b 40 04	 mov	 eax, DWORD PTR [eax+4]
  0007d	8b 40 10	 mov	 eax, DWORD PTR [eax+16]
  00080	89 45 8c	 mov	 DWORD PTR _dwDr3$[ebp], eax
; Line 20
  00083	8b 45 08	 mov	 eax, DWORD PTR _lpExcep$[ebp]
  00086	8b 40 04	 mov	 eax, DWORD PTR [eax+4]
  00089	8b 40 14	 mov	 eax, DWORD PTR [eax+20]
  0008c	89 45 c4	 mov	 DWORD PTR _dwDr6$[ebp], eax
; Line 21
  0008f	8b 45 08	 mov	 eax, DWORD PTR _lpExcep$[ebp]
  00092	8b 40 04	 mov	 eax, DWORD PTR [eax+4]
  00095	8b 40 18	 mov	 eax, DWORD PTR [eax+24]
  00098	89 45 a4	 mov	 DWORD PTR _dwDr7$[ebp], eax
; Line 22
  0009b	8b 45 08	 mov	 eax, DWORD PTR _lpExcep$[ebp]
  0009e	8b 40 04	 mov	 eax, DWORD PTR [eax+4]
  000a1	8b 80 8c 00 00
	00		 mov	 eax, DWORD PTR [eax+140]
  000a7	89 45 bc	 mov	 DWORD PTR _dwSegGs$[ebp], eax
; Line 23
  000aa	8b 45 08	 mov	 eax, DWORD PTR _lpExcep$[ebp]
  000ad	8b 40 04	 mov	 eax, DWORD PTR [eax+4]
  000b0	8b 80 90 00 00
	00		 mov	 eax, DWORD PTR [eax+144]
  000b6	89 45 e4	 mov	 DWORD PTR _dwSegFs$[ebp], eax
; Line 24
  000b9	8b 45 08	 mov	 eax, DWORD PTR _lpExcep$[ebp]
  000bc	8b 40 04	 mov	 eax, DWORD PTR [eax+4]
  000bf	8b 80 94 00 00
	00		 mov	 eax, DWORD PTR [eax+148]
  000c5	89 45 b4	 mov	 DWORD PTR _dwSegEs$[ebp], eax
; Line 25
  000c8	8b 45 08	 mov	 eax, DWORD PTR _lpExcep$[ebp]
  000cb	8b 40 04	 mov	 eax, DWORD PTR [eax+4]
  000ce	8b 80 c0 00 00
	00		 mov	 eax, DWORD PTR [eax+192]
  000d4	89 45 e0	 mov	 DWORD PTR _dwEFlags$[ebp], eax
; Line 27
  000d7	8b 45 08	 mov	 eax, DWORD PTR _lpExcep$[ebp]
  000da	8b 40 04	 mov	 eax, DWORD PTR [eax+4]
  000dd	8b 80 a0 00 00
	00		 mov	 eax, DWORD PTR [eax+160]
  000e3	89 45 d8	 mov	 DWORD PTR _dwEsi$[ebp], eax
; Line 28
  000e6	8b 45 08	 mov	 eax, DWORD PTR _lpExcep$[ebp]
  000e9	8b 40 04	 mov	 eax, DWORD PTR [eax+4]
  000ec	8b 80 9c 00 00
	00		 mov	 eax, DWORD PTR [eax+156]
  000f2	89 45 d0	 mov	 DWORD PTR _dwEdi$[ebp], eax
; Line 29
  000f5	8b 45 08	 mov	 eax, DWORD PTR _lpExcep$[ebp]
  000f8	8b 40 04	 mov	 eax, DWORD PTR [eax+4]
  000fb	8b 80 b4 00 00
	00		 mov	 eax, DWORD PTR [eax+180]
  00101	89 45 c8	 mov	 DWORD PTR _dwEbp$[ebp], eax
; Line 30
  00104	8b 45 08	 mov	 eax, DWORD PTR _lpExcep$[ebp]
  00107	8b 40 04	 mov	 eax, DWORD PTR [eax+4]
  0010a	8b 80 c4 00 00
	00		 mov	 eax, DWORD PTR [eax+196]
  00110	89 45 c0	 mov	 DWORD PTR _dwEsp$[ebp], eax
; Line 31
  00113	8b 45 08	 mov	 eax, DWORD PTR _lpExcep$[ebp]
  00116	8b 40 04	 mov	 eax, DWORD PTR [eax+4]
  00119	8b 80 b8 00 00
	00		 mov	 eax, DWORD PTR [eax+184]
  0011f	89 45 b8	 mov	 DWORD PTR _dwEip$[ebp], eax
; Line 33
  00122	8b 45 08	 mov	 eax, DWORD PTR _lpExcep$[ebp]
  00125	8b 40 04	 mov	 eax, DWORD PTR [eax+4]
  00128	8b 80 b0 00 00
	00		 mov	 eax, DWORD PTR [eax+176]
  0012e	89 45 b0	 mov	 DWORD PTR _dwEax$[ebp], eax
; Line 34
  00131	8b 45 08	 mov	 eax, DWORD PTR _lpExcep$[ebp]
  00134	8b 40 04	 mov	 eax, DWORD PTR [eax+4]
  00137	8b 80 a4 00 00
	00		 mov	 eax, DWORD PTR [eax+164]
  0013d	89 45 a8	 mov	 DWORD PTR _dwEbx$[ebp], eax
; Line 35
  00140	8b 45 08	 mov	 eax, DWORD PTR _lpExcep$[ebp]
  00143	8b 40 04	 mov	 eax, DWORD PTR [eax+4]
  00146	8b 80 ac 00 00
	00		 mov	 eax, DWORD PTR [eax+172]
  0014c	89 45 a0	 mov	 DWORD PTR _dwEcx$[ebp], eax
; Line 36
  0014f	8b 45 08	 mov	 eax, DWORD PTR _lpExcep$[ebp]
  00152	8b 40 04	 mov	 eax, DWORD PTR [eax+4]
  00155	8b 80 a8 00 00
	00		 mov	 eax, DWORD PTR [eax+168]
  0015b	89 45 98	 mov	 DWORD PTR _dwEdx$[ebp], eax
; Line 39
  0015e	8d 45 ec	 lea	 eax, DWORD PTR _time$[ebp]
  00161	50		 push	 eax
  00162	ff 15 00 00 00
	00		 call	 DWORD PTR __imp__GetLocalTime@4
; Line 40
  00168	68 00 00 00 00	 push	 OFFSET $SG90830
  0016d	68 00 00 00 00	 push	 OFFSET $SG90831
  00172	8d 45 e8	 lea	 eax, DWORD PTR _fp$[ebp]
  00175	50		 push	 eax
  00176	e8 00 00 00 00	 call	 _fopen_s
  0017b	83 c4 0c	 add	 esp, 12			; 0000000cH
; Line 43
  0017e	0f b7 45 f8	 movzx	 eax, WORD PTR _time$[ebp+12]
  00182	50		 push	 eax
  00183	0f b7 45 f6	 movzx	 eax, WORD PTR _time$[ebp+10]
  00187	50		 push	 eax
  00188	0f b7 45 f2	 movzx	 eax, WORD PTR _time$[ebp+6]
  0018c	50		 push	 eax
  0018d	0f b7 45 ee	 movzx	 eax, WORD PTR _time$[ebp+2]
  00191	50		 push	 eax
  00192	0f b7 45 ec	 movzx	 eax, WORD PTR _time$[ebp]
  00196	50		 push	 eax
  00197	68 00 00 00 00	 push	 OFFSET $SG90832
  0019c	ff 75 e8	 push	 DWORD PTR _fp$[ebp]
  0019f	e8 00 00 00 00	 call	 _fprintf
  001a4	83 c4 1c	 add	 esp, 28			; 0000001cH
; Line 45
  001a7	ff 75 0c	 push	 DWORD PTR _szOutMsg$[ebp]
  001aa	68 00 00 00 00	 push	 OFFSET $SG90833
  001af	ff 75 e8	 push	 DWORD PTR _fp$[ebp]
  001b2	e8 00 00 00 00	 call	 _fprintf
  001b7	83 c4 0c	 add	 esp, 12			; 0000000cH
; Line 46
  001ba	ff 75 94	 push	 DWORD PTR _dwExceptionAddress$[ebp]
  001bd	68 00 00 00 00	 push	 OFFSET $SG90834
  001c2	ff 75 e8	 push	 DWORD PTR _fp$[ebp]
  001c5	e8 00 00 00 00	 call	 _fprintf
  001ca	83 c4 0c	 add	 esp, 12			; 0000000cH
; Line 47
  001cd	ff 75 88	 push	 DWORD PTR _dwExceptionCode$[ebp]
  001d0	68 00 00 00 00	 push	 OFFSET $SG90835
  001d5	ff 75 e8	 push	 DWORD PTR _fp$[ebp]
  001d8	e8 00 00 00 00	 call	 _fprintf
  001dd	83 c4 0c	 add	 esp, 12			; 0000000cH
; Line 48
  001e0	ff 75 dc	 push	 DWORD PTR _dwExceptionFlags$[ebp]
  001e3	68 00 00 00 00	 push	 OFFSET $SG90836
  001e8	ff 75 e8	 push	 DWORD PTR _fp$[ebp]
  001eb	e8 00 00 00 00	 call	 _fprintf
  001f0	83 c4 0c	 add	 esp, 12			; 0000000cH
; Line 49
  001f3	ff 75 9c	 push	 DWORD PTR _dwNumberParameters$[ebp]
  001f6	68 00 00 00 00	 push	 OFFSET $SG90837
  001fb	ff 75 e8	 push	 DWORD PTR _fp$[ebp]
  001fe	e8 00 00 00 00	 call	 _fprintf
  00203	83 c4 0c	 add	 esp, 12			; 0000000cH
; Line 50
  00206	ff 75 d4	 push	 DWORD PTR _dwDr0$[ebp]
  00209	68 00 00 00 00	 push	 OFFSET $SG90838
  0020e	ff 75 e8	 push	 DWORD PTR _fp$[ebp]
  00211	e8 00 00 00 00	 call	 _fprintf
  00216	83 c4 0c	 add	 esp, 12			; 0000000cH
; Line 51
  00219	ff 75 ac	 push	 DWORD PTR _dwDr1$[ebp]
  0021c	68 00 00 00 00	 push	 OFFSET $SG90839
  00221	ff 75 e8	 push	 DWORD PTR _fp$[ebp]
  00224	e8 00 00 00 00	 call	 _fprintf
  00229	83 c4 0c	 add	 esp, 12			; 0000000cH
; Line 52
  0022c	ff 75 cc	 push	 DWORD PTR _dwDr2$[ebp]
  0022f	68 00 00 00 00	 push	 OFFSET $SG90840
  00234	ff 75 e8	 push	 DWORD PTR _fp$[ebp]
  00237	e8 00 00 00 00	 call	 _fprintf
  0023c	83 c4 0c	 add	 esp, 12			; 0000000cH
; Line 53
  0023f	ff 75 8c	 push	 DWORD PTR _dwDr3$[ebp]
  00242	68 00 00 00 00	 push	 OFFSET $SG90841
  00247	ff 75 e8	 push	 DWORD PTR _fp$[ebp]
  0024a	e8 00 00 00 00	 call	 _fprintf
  0024f	83 c4 0c	 add	 esp, 12			; 0000000cH
; Line 54
  00252	ff 75 c4	 push	 DWORD PTR _dwDr6$[ebp]
  00255	68 00 00 00 00	 push	 OFFSET $SG90842
  0025a	ff 75 e8	 push	 DWORD PTR _fp$[ebp]
  0025d	e8 00 00 00 00	 call	 _fprintf
  00262	83 c4 0c	 add	 esp, 12			; 0000000cH
; Line 55
  00265	ff 75 a4	 push	 DWORD PTR _dwDr7$[ebp]
  00268	68 00 00 00 00	 push	 OFFSET $SG90843
  0026d	ff 75 e8	 push	 DWORD PTR _fp$[ebp]
  00270	e8 00 00 00 00	 call	 _fprintf
  00275	83 c4 0c	 add	 esp, 12			; 0000000cH
; Line 57
  00278	ff 75 bc	 push	 DWORD PTR _dwSegGs$[ebp]
  0027b	68 00 00 00 00	 push	 OFFSET $SG90844
  00280	ff 75 e8	 push	 DWORD PTR _fp$[ebp]
  00283	e8 00 00 00 00	 call	 _fprintf
  00288	83 c4 0c	 add	 esp, 12			; 0000000cH
; Line 58
  0028b	ff 75 e4	 push	 DWORD PTR _dwSegFs$[ebp]
  0028e	68 00 00 00 00	 push	 OFFSET $SG90845
  00293	ff 75 e8	 push	 DWORD PTR _fp$[ebp]
  00296	e8 00 00 00 00	 call	 _fprintf
  0029b	83 c4 0c	 add	 esp, 12			; 0000000cH
; Line 59
  0029e	ff 75 b4	 push	 DWORD PTR _dwSegEs$[ebp]
  002a1	68 00 00 00 00	 push	 OFFSET $SG90846
  002a6	ff 75 e8	 push	 DWORD PTR _fp$[ebp]
  002a9	e8 00 00 00 00	 call	 _fprintf
  002ae	83 c4 0c	 add	 esp, 12			; 0000000cH
; Line 60
  002b1	ff 75 e0	 push	 DWORD PTR _dwEFlags$[ebp]
  002b4	68 00 00 00 00	 push	 OFFSET $SG90847
  002b9	ff 75 e8	 push	 DWORD PTR _fp$[ebp]
  002bc	e8 00 00 00 00	 call	 _fprintf
  002c1	83 c4 0c	 add	 esp, 12			; 0000000cH
; Line 62
  002c4	ff 75 d8	 push	 DWORD PTR _dwEsi$[ebp]
  002c7	68 00 00 00 00	 push	 OFFSET $SG90848
  002cc	ff 75 e8	 push	 DWORD PTR _fp$[ebp]
  002cf	e8 00 00 00 00	 call	 _fprintf
  002d4	83 c4 0c	 add	 esp, 12			; 0000000cH
; Line 63
  002d7	ff 75 d0	 push	 DWORD PTR _dwEdi$[ebp]
  002da	68 00 00 00 00	 push	 OFFSET $SG90849
  002df	ff 75 e8	 push	 DWORD PTR _fp$[ebp]
  002e2	e8 00 00 00 00	 call	 _fprintf
  002e7	83 c4 0c	 add	 esp, 12			; 0000000cH
; Line 64
  002ea	ff 75 c8	 push	 DWORD PTR _dwEbp$[ebp]
  002ed	68 00 00 00 00	 push	 OFFSET $SG90850
  002f2	ff 75 e8	 push	 DWORD PTR _fp$[ebp]
  002f5	e8 00 00 00 00	 call	 _fprintf
  002fa	83 c4 0c	 add	 esp, 12			; 0000000cH
; Line 65
  002fd	ff 75 c0	 push	 DWORD PTR _dwEsp$[ebp]
  00300	68 00 00 00 00	 push	 OFFSET $SG90851
  00305	ff 75 e8	 push	 DWORD PTR _fp$[ebp]
  00308	e8 00 00 00 00	 call	 _fprintf
  0030d	83 c4 0c	 add	 esp, 12			; 0000000cH
; Line 66
  00310	ff 75 b8	 push	 DWORD PTR _dwEip$[ebp]
  00313	68 00 00 00 00	 push	 OFFSET $SG90852
  00318	ff 75 e8	 push	 DWORD PTR _fp$[ebp]
  0031b	e8 00 00 00 00	 call	 _fprintf
  00320	83 c4 0c	 add	 esp, 12			; 0000000cH
; Line 69
  00323	ff 75 b0	 push	 DWORD PTR _dwEax$[ebp]
  00326	68 00 00 00 00	 push	 OFFSET $SG90853
  0032b	ff 75 e8	 push	 DWORD PTR _fp$[ebp]
  0032e	e8 00 00 00 00	 call	 _fprintf
  00333	83 c4 0c	 add	 esp, 12			; 0000000cH
; Line 70
  00336	ff 75 a8	 push	 DWORD PTR _dwEbx$[ebp]
  00339	68 00 00 00 00	 push	 OFFSET $SG90854
  0033e	ff 75 e8	 push	 DWORD PTR _fp$[ebp]
  00341	e8 00 00 00 00	 call	 _fprintf
  00346	83 c4 0c	 add	 esp, 12			; 0000000cH
; Line 71
  00349	ff 75 a0	 push	 DWORD PTR _dwEcx$[ebp]
  0034c	68 00 00 00 00	 push	 OFFSET $SG90855
  00351	ff 75 e8	 push	 DWORD PTR _fp$[ebp]
  00354	e8 00 00 00 00	 call	 _fprintf
  00359	83 c4 0c	 add	 esp, 12			; 0000000cH
; Line 72
  0035c	ff 75 98	 push	 DWORD PTR _dwEdx$[ebp]
  0035f	68 00 00 00 00	 push	 OFFSET $SG90856
  00364	ff 75 e8	 push	 DWORD PTR _fp$[ebp]
  00367	e8 00 00 00 00	 call	 _fprintf
  0036c	83 c4 0c	 add	 esp, 12			; 0000000cH
; Line 74
  0036f	68 00 00 00 00	 push	 OFFSET $SG90857
  00374	ff 75 e8	 push	 DWORD PTR _fp$[ebp]
  00377	e8 00 00 00 00	 call	 _fprintf
  0037c	59		 pop	 ecx
  0037d	59		 pop	 ecx
; Line 76
  0037e	ff 75 e8	 push	 DWORD PTR _fp$[ebp]
  00381	e8 00 00 00 00	 call	 _fclose
  00386	59		 pop	 ecx
; Line 77
  00387	83 65 e8 00	 and	 DWORD PTR _fp$[ebp], 0
; Line 79
  0038b	6a 00		 push	 0
  0038d	68 00 00 00 00	 push	 OFFSET $SG90858
  00392	68 00 00 00 00	 push	 OFFSET $SG90859
  00397	6a 00		 push	 0
  00399	ff 15 00 00 00
	00		 call	 DWORD PTR __imp__MessageBoxA@16
; Line 81
  0039f	8b 45 90	 mov	 eax, DWORD PTR _result$[ebp]
$LN2@DumpExcept:
; Line 83
  003a2	8b 4d fc	 mov	 ecx, DWORD PTR __$ArrayPad$[ebp]
  003a5	33 cd		 xor	 ecx, ebp
  003a7	e8 00 00 00 00	 call	 @__security_check_cookie@4
  003ac	8b e5		 mov	 esp, ebp
  003ae	5d		 pop	 ebp
  003af	c3		 ret	 0
?DumpException@@YAHPAU_EXCEPTION_POINTERS@@PAD@Z ENDP	; DumpException
_TEXT	ENDS
END
