; Listing generated by Microsoft (R) Optimizing Compiler Version 18.00.30501.0 

	TITLE	E:\GitHub\Mso_Code\4DyuchiNET_Latest\factory.cpp
	.686P
	.XMM
	include listing.inc
	.model	flat

INCLUDELIB LIBCMT
INCLUDELIB OLDNAMES

PUBLIC	_CLSID_4DyuchiNET
PUBLIC	_IID_4DyuchiNET
;	COMDAT _IID_4DyuchiNET
CONST	SEGMENT
_IID_4DyuchiNET DD 0d41bd0f8H
	DW	07bfH
	DW	04dbcH
	DB	08aH
	DB	0d3H
	DB	0a3H
	DB	052H
	DB	04cH
	DB	0c4H
	DB	03eH
	DB	05eH
CONST	ENDS
;	COMDAT _CLSID_4DyuchiNET
CONST	SEGMENT
_CLSID_4DyuchiNET DD 011c02a88H
	DW	08bf9H
	DW	04863H
	DB	0a7H
	DB	0deH
	DB	01bH
	DB	0f6H
	DB	06dH
	DB	060H
	DB	0cbH
	DB	0a3H
CONST	ENDS
PUBLIC	?QueryInterface@CF4DyuchiNET@@UAGJABU_GUID@@PAPAX@Z ; CF4DyuchiNET::QueryInterface
PUBLIC	?AddRef@CF4DyuchiNET@@UAGKXZ			; CF4DyuchiNET::AddRef
PUBLIC	?Release@CF4DyuchiNET@@UAGKXZ			; CF4DyuchiNET::Release
PUBLIC	?CreateInstance@CF4DyuchiNET@@UAGJPAUIUnknown@@ABU_GUID@@PAPAX@Z ; CF4DyuchiNET::CreateInstance
PUBLIC	?LockServer@CF4DyuchiNET@@UAGJH@Z		; CF4DyuchiNET::LockServer
PUBLIC	??0CF4DyuchiNET@@QAE@XZ				; CF4DyuchiNET::CF4DyuchiNET
PUBLIC	??1CF4DyuchiNET@@QAE@XZ				; CF4DyuchiNET::~CF4DyuchiNET
PUBLIC	??_7CF4DyuchiNET@@6B@				; CF4DyuchiNET::`vftable'
PUBLIC	??_R0?AUIUnknown@@@8				; IUnknown `RTTI Type Descriptor'
PUBLIC	??_R3IUnknown@@8				; IUnknown::`RTTI Class Hierarchy Descriptor'
PUBLIC	??_R2IUnknown@@8				; IUnknown::`RTTI Base Class Array'
PUBLIC	??_R1A@?0A@EA@IUnknown@@8			; IUnknown::`RTTI Base Class Descriptor at (0,-1,0,64)'
PUBLIC	??_R0?AUIClassFactory@@@8			; IClassFactory `RTTI Type Descriptor'
PUBLIC	??_R3IClassFactory@@8				; IClassFactory::`RTTI Class Hierarchy Descriptor'
PUBLIC	??_R2IClassFactory@@8				; IClassFactory::`RTTI Base Class Array'
PUBLIC	??_R1A@?0A@EA@IClassFactory@@8			; IClassFactory::`RTTI Base Class Descriptor at (0,-1,0,64)'
PUBLIC	??_R4CF4DyuchiNET@@6B@				; CF4DyuchiNET::`RTTI Complete Object Locator'
PUBLIC	??_R0?AVCF4DyuchiNET@@@8			; CF4DyuchiNET `RTTI Type Descriptor'
PUBLIC	??_R3CF4DyuchiNET@@8				; CF4DyuchiNET::`RTTI Class Hierarchy Descriptor'
PUBLIC	??_R2CF4DyuchiNET@@8				; CF4DyuchiNET::`RTTI Base Class Array'
PUBLIC	??_R1A@?0A@EA@CF4DyuchiNET@@8			; CF4DyuchiNET::`RTTI Base Class Descriptor at (0,-1,0,64)'
EXTRN	??2@YAPAXI@Z:PROC				; operator new
EXTRN	??3@YAXPAX@Z:PROC				; operator delete
EXTRN	??0Co4DyuchiNET@@QAE@XZ:PROC			; Co4DyuchiNET::Co4DyuchiNET
EXTRN	??1Co4DyuchiNET@@QAE@XZ:PROC			; Co4DyuchiNET::~Co4DyuchiNET
EXTRN	@__security_check_cookie@4:PROC
EXTRN	___CxxFrameHandler3:PROC
EXTRN	_memcmp:PROC
EXTRN	_IID_IUnknown:BYTE
EXTRN	_IID_IClassFactory:BYTE
EXTRN	??_7type_info@@6B@:QWORD			; type_info::`vftable'
EXTRN	___security_cookie:DWORD
;	COMDAT ??_R1A@?0A@EA@CF4DyuchiNET@@8
rdata$r	SEGMENT
??_R1A@?0A@EA@CF4DyuchiNET@@8 DD FLAT:??_R0?AVCF4DyuchiNET@@@8 ; CF4DyuchiNET::`RTTI Base Class Descriptor at (0,-1,0,64)'
	DD	02H
	DD	00H
	DD	0ffffffffH
	DD	00H
	DD	040H
	DD	FLAT:??_R3CF4DyuchiNET@@8
rdata$r	ENDS
;	COMDAT ??_R2CF4DyuchiNET@@8
rdata$r	SEGMENT
??_R2CF4DyuchiNET@@8 DD FLAT:??_R1A@?0A@EA@CF4DyuchiNET@@8 ; CF4DyuchiNET::`RTTI Base Class Array'
	DD	FLAT:??_R1A@?0A@EA@IClassFactory@@8
	DD	FLAT:??_R1A@?0A@EA@IUnknown@@8
rdata$r	ENDS
;	COMDAT ??_R3CF4DyuchiNET@@8
rdata$r	SEGMENT
??_R3CF4DyuchiNET@@8 DD 00H				; CF4DyuchiNET::`RTTI Class Hierarchy Descriptor'
	DD	00H
	DD	03H
	DD	FLAT:??_R2CF4DyuchiNET@@8
rdata$r	ENDS
;	COMDAT ??_R0?AVCF4DyuchiNET@@@8
data$r	SEGMENT
??_R0?AVCF4DyuchiNET@@@8 DD FLAT:??_7type_info@@6B@	; CF4DyuchiNET `RTTI Type Descriptor'
	DD	00H
	DB	'.?AVCF4DyuchiNET@@', 00H
data$r	ENDS
;	COMDAT ??_R4CF4DyuchiNET@@6B@
rdata$r	SEGMENT
??_R4CF4DyuchiNET@@6B@ DD 00H				; CF4DyuchiNET::`RTTI Complete Object Locator'
	DD	00H
	DD	00H
	DD	FLAT:??_R0?AVCF4DyuchiNET@@@8
	DD	FLAT:??_R3CF4DyuchiNET@@8
rdata$r	ENDS
;	COMDAT ??_R1A@?0A@EA@IClassFactory@@8
rdata$r	SEGMENT
??_R1A@?0A@EA@IClassFactory@@8 DD FLAT:??_R0?AUIClassFactory@@@8 ; IClassFactory::`RTTI Base Class Descriptor at (0,-1,0,64)'
	DD	01H
	DD	00H
	DD	0ffffffffH
	DD	00H
	DD	040H
	DD	FLAT:??_R3IClassFactory@@8
rdata$r	ENDS
;	COMDAT ??_R2IClassFactory@@8
rdata$r	SEGMENT
??_R2IClassFactory@@8 DD FLAT:??_R1A@?0A@EA@IClassFactory@@8 ; IClassFactory::`RTTI Base Class Array'
	DD	FLAT:??_R1A@?0A@EA@IUnknown@@8
rdata$r	ENDS
;	COMDAT ??_R3IClassFactory@@8
rdata$r	SEGMENT
??_R3IClassFactory@@8 DD 00H				; IClassFactory::`RTTI Class Hierarchy Descriptor'
	DD	00H
	DD	02H
	DD	FLAT:??_R2IClassFactory@@8
rdata$r	ENDS
;	COMDAT ??_R0?AUIClassFactory@@@8
data$r	SEGMENT
??_R0?AUIClassFactory@@@8 DD FLAT:??_7type_info@@6B@	; IClassFactory `RTTI Type Descriptor'
	DD	00H
	DB	'.?AUIClassFactory@@', 00H
data$r	ENDS
;	COMDAT ??_R1A@?0A@EA@IUnknown@@8
rdata$r	SEGMENT
??_R1A@?0A@EA@IUnknown@@8 DD FLAT:??_R0?AUIUnknown@@@8	; IUnknown::`RTTI Base Class Descriptor at (0,-1,0,64)'
	DD	00H
	DD	00H
	DD	0ffffffffH
	DD	00H
	DD	040H
	DD	FLAT:??_R3IUnknown@@8
rdata$r	ENDS
;	COMDAT ??_R2IUnknown@@8
rdata$r	SEGMENT
??_R2IUnknown@@8 DD FLAT:??_R1A@?0A@EA@IUnknown@@8	; IUnknown::`RTTI Base Class Array'
rdata$r	ENDS
;	COMDAT ??_R3IUnknown@@8
rdata$r	SEGMENT
??_R3IUnknown@@8 DD 00H					; IUnknown::`RTTI Class Hierarchy Descriptor'
	DD	00H
	DD	01H
	DD	FLAT:??_R2IUnknown@@8
rdata$r	ENDS
;	COMDAT ??_R0?AUIUnknown@@@8
data$r	SEGMENT
??_R0?AUIUnknown@@@8 DD FLAT:??_7type_info@@6B@		; IUnknown `RTTI Type Descriptor'
	DD	00H
	DB	'.?AUIUnknown@@', 00H
data$r	ENDS
;	COMDAT ??_7CF4DyuchiNET@@6B@
CONST	SEGMENT
??_7CF4DyuchiNET@@6B@ DD FLAT:??_R4CF4DyuchiNET@@6B@	; CF4DyuchiNET::`vftable'
	DD	FLAT:?QueryInterface@CF4DyuchiNET@@UAGJABU_GUID@@PAPAX@Z
	DD	FLAT:?AddRef@CF4DyuchiNET@@UAGKXZ
	DD	FLAT:?Release@CF4DyuchiNET@@UAGKXZ
	DD	FLAT:?CreateInstance@CF4DyuchiNET@@UAGJPAUIUnknown@@ABU_GUID@@PAPAX@Z
	DD	FLAT:?LockServer@CF4DyuchiNET@@UAGJH@Z
CONST	ENDS
xdata$x	SEGMENT
__unwindtable$?CreateInstance@CF4DyuchiNET@@UAGJPAUIUnknown@@ABU_GUID@@PAPAX@Z DD 0ffffffffH
	DD	FLAT:__unwindfunclet$?CreateInstance@CF4DyuchiNET@@UAGJPAUIUnknown@@ABU_GUID@@PAPAX@Z$0
__ehfuncinfo$?CreateInstance@CF4DyuchiNET@@UAGJPAUIUnknown@@ABU_GUID@@PAPAX@Z DD 019930522H
	DD	01H
	DD	FLAT:__unwindtable$?CreateInstance@CF4DyuchiNET@@UAGJPAUIUnknown@@ABU_GUID@@PAPAX@Z
	DD	2 DUP(00H)
	DD	2 DUP(00H)
	DD	00H
	DD	01H
xdata$x	ENDS
; Function compile flags: /Odspy
_TEXT	SEGMENT
_this$ = -4						; size = 4
??1CF4DyuchiNET@@QAE@XZ PROC				; CF4DyuchiNET::~CF4DyuchiNET
; _this$ = ecx
; File e:\github\mso_code\4dyuchinet_latest\factory.cpp
; Line 71
  00000	55		 push	 ebp
  00001	8b ec		 mov	 ebp, esp
  00003	51		 push	 ecx
  00004	89 4d fc	 mov	 DWORD PTR _this$[ebp], ecx
  00007	8b 45 fc	 mov	 eax, DWORD PTR _this$[ebp]
  0000a	c7 00 00 00 00
	00		 mov	 DWORD PTR [eax], OFFSET ??_7CF4DyuchiNET@@6B@
; Line 74
  00010	8b e5		 mov	 esp, ebp
  00012	5d		 pop	 ebp
  00013	c3		 ret	 0
??1CF4DyuchiNET@@QAE@XZ ENDP				; CF4DyuchiNET::~CF4DyuchiNET
_TEXT	ENDS
; Function compile flags: /Odspy
_TEXT	SEGMENT
_this$ = -4						; size = 4
??0CF4DyuchiNET@@QAE@XZ PROC				; CF4DyuchiNET::CF4DyuchiNET
; _this$ = ecx
; File e:\github\mso_code\4dyuchinet_latest\factory.cpp
; Line 6
  00000	55		 push	 ebp
  00001	8b ec		 mov	 ebp, esp
  00003	51		 push	 ecx
  00004	89 4d fc	 mov	 DWORD PTR _this$[ebp], ecx
  00007	8b 45 fc	 mov	 eax, DWORD PTR _this$[ebp]
  0000a	c7 00 00 00 00
	00		 mov	 DWORD PTR [eax], OFFSET ??_7CF4DyuchiNET@@6B@
; Line 8
  00010	8b 45 fc	 mov	 eax, DWORD PTR _this$[ebp]
  00013	83 60 04 00	 and	 DWORD PTR [eax+4], 0
; Line 9
  00017	8b 45 fc	 mov	 eax, DWORD PTR _this$[ebp]
  0001a	8b e5		 mov	 esp, ebp
  0001c	5d		 pop	 ebp
  0001d	c3		 ret	 0
??0CF4DyuchiNET@@QAE@XZ ENDP				; CF4DyuchiNET::CF4DyuchiNET
_TEXT	ENDS
; Function compile flags: /Odspy
_TEXT	SEGMENT
_this$ = 8						; size = 4
___formal$ = 12						; size = 4
?LockServer@CF4DyuchiNET@@UAGJH@Z PROC			; CF4DyuchiNET::LockServer
; File e:\github\mso_code\4dyuchinet_latest\factory.cpp
; Line 67
  00000	55		 push	 ebp
  00001	8b ec		 mov	 ebp, esp
; Line 68
  00003	33 c0		 xor	 eax, eax
; Line 69
  00005	5d		 pop	 ebp
  00006	c2 08 00	 ret	 8
?LockServer@CF4DyuchiNET@@UAGJH@Z ENDP			; CF4DyuchiNET::LockServer
_TEXT	ENDS
; Function compile flags: /Odspy
_TEXT	SEGMENT
tv93 = -60						; size = 4
$T2 = -56						; size = 4
$T3 = -52						; size = 4
tv144 = -48						; size = 4
tv77 = -44						; size = 4
$T4 = -40						; size = 4
tv132 = -36						; size = 4
tv138 = -32						; size = 4
tv146 = -28						; size = 4
$T5 = -24						; size = 4
_hr$ = -20						; size = 4
_pNet$ = -16						; size = 4
__$EHRec$ = -12						; size = 12
_this$ = 8						; size = 4
_pUnknown$ = 12						; size = 4
_refiid$ = 16						; size = 4
_ppv$ = 20						; size = 4
?CreateInstance@CF4DyuchiNET@@UAGJPAUIUnknown@@ABU_GUID@@PAPAX@Z PROC ; CF4DyuchiNET::CreateInstance
; File e:\github\mso_code\4dyuchinet_latest\factory.cpp
; Line 41
  00000	55		 push	 ebp
  00001	8b ec		 mov	 ebp, esp
  00003	6a ff		 push	 -1
  00005	68 00 00 00 00	 push	 __ehhandler$?CreateInstance@CF4DyuchiNET@@UAGJPAUIUnknown@@ABU_GUID@@PAPAX@Z
  0000a	64 a1 00 00 00
	00		 mov	 eax, DWORD PTR fs:0
  00010	50		 push	 eax
  00011	83 ec 30	 sub	 esp, 48			; 00000030H
  00014	a1 00 00 00 00	 mov	 eax, DWORD PTR ___security_cookie
  00019	33 c5		 xor	 eax, ebp
  0001b	50		 push	 eax
  0001c	8d 45 f4	 lea	 eax, DWORD PTR __$EHRec$[ebp]
  0001f	64 a3 00 00 00
	00		 mov	 DWORD PTR fs:0, eax
; Line 42
  00025	c7 45 ec 05 40
	00 80		 mov	 DWORD PTR _hr$[ebp], -2147467259 ; 80004005H
; Line 44
  0002c	83 65 f0 00	 and	 DWORD PTR _pNet$[ebp], 0
; Line 45
  00030	8b 45 14	 mov	 eax, DWORD PTR _ppv$[ebp]
  00033	83 20 00	 and	 DWORD PTR [eax], 0
; Line 48
  00036	83 7d 0c 00	 cmp	 DWORD PTR _pUnknown$[ebp], 0
  0003a	74 64		 je	 SHORT $LN4@CreateInst
; File c:\program files (x86)\windows kits\8.1\include\shared\guiddef.h
; Line 161
  0003c	6a 10		 push	 16			; 00000010H
  0003e	68 00 00 00 00	 push	 OFFSET _IID_IUnknown
  00043	ff 75 10	 push	 DWORD PTR _refiid$[ebp]
  00046	e8 00 00 00 00	 call	 _memcmp
  0004b	83 c4 0c	 add	 esp, 12			; 0000000cH
  0004e	89 45 d0	 mov	 DWORD PTR tv144[ebp], eax
  00051	83 7d d0 00	 cmp	 DWORD PTR tv144[ebp], 0
  00055	75 09		 jne	 SHORT $LN22@CreateInst
  00057	c7 45 e4 01 00
	00 00		 mov	 DWORD PTR tv146[ebp], 1
  0005e	eb 04		 jmp	 SHORT $LN20@CreateInst
$LN22@CreateInst:
  00060	83 65 e4 00	 and	 DWORD PTR tv146[ebp], 0
$LN20@CreateInst:
; Line 194
  00064	83 7d e4 00	 cmp	 DWORD PTR tv146[ebp], 0
  00068	74 09		 je	 SHORT $LN18@CreateInst
  0006a	c7 45 e0 01 00
	00 00		 mov	 DWORD PTR tv138[ebp], 1
  00071	eb 04		 jmp	 SHORT $LN16@CreateInst
$LN18@CreateInst:
  00073	83 65 e0 00	 and	 DWORD PTR tv138[ebp], 0
$LN16@CreateInst:
; Line 199
  00077	0f b6 45 e0	 movzx	 eax, BYTE PTR tv138[ebp]
  0007b	85 c0		 test	 eax, eax
  0007d	75 09		 jne	 SHORT $LN14@CreateInst
  0007f	c7 45 dc 01 00
	00 00		 mov	 DWORD PTR tv132[ebp], 1
  00086	eb 04		 jmp	 SHORT $LN12@CreateInst
$LN14@CreateInst:
  00088	83 65 dc 00	 and	 DWORD PTR tv132[ebp], 0
$LN12@CreateInst:
; File e:\github\mso_code\4dyuchinet_latest\factory.cpp
; Line 48
  0008c	0f b6 45 dc	 movzx	 eax, BYTE PTR tv132[ebp]
  00090	85 c0		 test	 eax, eax
  00092	74 0c		 je	 SHORT $LN4@CreateInst
; Line 49
  00094	c7 45 ec 10 01
	04 80		 mov	 DWORD PTR _hr$[ebp], -2147221232 ; 80040110H
; Line 50
  0009b	e9 97 00 00 00	 jmp	 $LN3@CreateInst
$LN4@CreateInst:
; Line 52
  000a0	c7 45 ec 0e 00
	07 80		 mov	 DWORD PTR _hr$[ebp], -2147024882 ; 8007000eH
; Line 53
  000a7	6a 08		 push	 8
  000a9	e8 00 00 00 00	 call	 ??2@YAPAXI@Z		; operator new
  000ae	59		 pop	 ecx
  000af	89 45 d8	 mov	 DWORD PTR $T4[ebp], eax
  000b2	83 65 fc 00	 and	 DWORD PTR __$EHRec$[ebp+8], 0
  000b6	83 7d d8 00	 cmp	 DWORD PTR $T4[ebp], 0
  000ba	74 0d		 je	 SHORT $LN7@CreateInst
  000bc	8b 4d d8	 mov	 ecx, DWORD PTR $T4[ebp]
  000bf	e8 00 00 00 00	 call	 ??0Co4DyuchiNET@@QAE@XZ	; Co4DyuchiNET::Co4DyuchiNET
  000c4	89 45 d4	 mov	 DWORD PTR tv77[ebp], eax
  000c7	eb 04		 jmp	 SHORT $LN8@CreateInst
$LN7@CreateInst:
  000c9	83 65 d4 00	 and	 DWORD PTR tv77[ebp], 0
$LN8@CreateInst:
  000cd	8b 45 d4	 mov	 eax, DWORD PTR tv77[ebp]
  000d0	89 45 cc	 mov	 DWORD PTR $T3[ebp], eax
  000d3	83 4d fc ff	 or	 DWORD PTR __$EHRec$[ebp+8], -1
  000d7	8b 45 cc	 mov	 eax, DWORD PTR $T3[ebp]
  000da	89 45 f0	 mov	 DWORD PTR _pNet$[ebp], eax
; Line 54
  000dd	83 7d f0 00	 cmp	 DWORD PTR _pNet$[ebp], 0
  000e1	74 54		 je	 SHORT $LN3@CreateInst
; Line 56
  000e3	ff 75 14	 push	 DWORD PTR _ppv$[ebp]
  000e6	ff 75 10	 push	 DWORD PTR _refiid$[ebp]
  000e9	8b 45 f0	 mov	 eax, DWORD PTR _pNet$[ebp]
  000ec	8b 00		 mov	 eax, DWORD PTR [eax]
  000ee	ff 75 f0	 push	 DWORD PTR _pNet$[ebp]
  000f1	ff 10		 call	 DWORD PTR [eax]
  000f3	89 45 ec	 mov	 DWORD PTR _hr$[ebp], eax
; Line 57
  000f6	83 7d ec 00	 cmp	 DWORD PTR _hr$[ebp], 0
  000fa	7d 3b		 jge	 SHORT $LN3@CreateInst
; Line 59
  000fc	8b 45 f0	 mov	 eax, DWORD PTR _pNet$[ebp]
  000ff	89 45 c8	 mov	 DWORD PTR $T2[ebp], eax
  00102	8b 45 c8	 mov	 eax, DWORD PTR $T2[ebp]
  00105	89 45 e8	 mov	 DWORD PTR $T5[ebp], eax
  00108	83 7d e8 00	 cmp	 DWORD PTR $T5[ebp], 0
  0010c	74 21		 je	 SHORT $LN9@CreateInst
  0010e	8b 4d e8	 mov	 ecx, DWORD PTR $T5[ebp]
  00111	e8 00 00 00 00	 call	 ??1Co4DyuchiNET@@QAE@XZ	; Co4DyuchiNET::~Co4DyuchiNET
  00116	33 c0		 xor	 eax, eax
  00118	40		 inc	 eax
  00119	83 e0 01	 and	 eax, 1
  0011c	74 09		 je	 SHORT $LN25@CreateInst
  0011e	ff 75 e8	 push	 DWORD PTR $T5[ebp]
  00121	e8 00 00 00 00	 call	 ??3@YAXPAX@Z		; operator delete
  00126	59		 pop	 ecx
$LN25@CreateInst:
  00127	8b 45 e8	 mov	 eax, DWORD PTR $T5[ebp]
  0012a	89 45 c4	 mov	 DWORD PTR tv93[ebp], eax
  0012d	eb 04		 jmp	 SHORT $LN10@CreateInst
$LN9@CreateInst:
  0012f	83 65 c4 00	 and	 DWORD PTR tv93[ebp], 0
$LN10@CreateInst:
; Line 60
  00133	83 65 f0 00	 and	 DWORD PTR _pNet$[ebp], 0
$LN3@CreateInst:
; Line 64
  00137	8b 45 ec	 mov	 eax, DWORD PTR _hr$[ebp]
; Line 65
  0013a	8b 4d f4	 mov	 ecx, DWORD PTR __$EHRec$[ebp]
  0013d	64 89 0d 00 00
	00 00		 mov	 DWORD PTR fs:0, ecx
  00144	59		 pop	 ecx
  00145	8b e5		 mov	 esp, ebp
  00147	5d		 pop	 ebp
  00148	c2 10 00	 ret	 16			; 00000010H
_TEXT	ENDS
text$x	SEGMENT
__unwindfunclet$?CreateInstance@CF4DyuchiNET@@UAGJPAUIUnknown@@ABU_GUID@@PAPAX@Z$0:
  00000	ff 75 d8	 push	 DWORD PTR $T4[ebp]
  00003	e8 00 00 00 00	 call	 ??3@YAXPAX@Z		; operator delete
  00008	59		 pop	 ecx
  00009	c3		 ret	 0
__ehhandler$?CreateInstance@CF4DyuchiNET@@UAGJPAUIUnknown@@ABU_GUID@@PAPAX@Z:
  0000a	8b 54 24 08	 mov	 edx, DWORD PTR [esp+8]
  0000e	8d 42 0c	 lea	 eax, DWORD PTR [edx+12]
  00011	8b 4a cc	 mov	 ecx, DWORD PTR [edx-52]
  00014	33 c8		 xor	 ecx, eax
  00016	e8 00 00 00 00	 call	 @__security_check_cookie@4
  0001b	b8 00 00 00 00	 mov	 eax, OFFSET __ehfuncinfo$?CreateInstance@CF4DyuchiNET@@UAGJPAUIUnknown@@ABU_GUID@@PAPAX@Z
  00020	e9 00 00 00 00	 jmp	 ___CxxFrameHandler3
text$x	ENDS
?CreateInstance@CF4DyuchiNET@@UAGJPAUIUnknown@@ABU_GUID@@PAPAX@Z ENDP ; CF4DyuchiNET::CreateInstance
; Function compile flags: /Odspy
_TEXT	SEGMENT
tv74 = -12						; size = 4
$T1 = -8						; size = 4
$T2 = -4						; size = 4
_this$ = 8						; size = 4
?Release@CF4DyuchiNET@@UAGKXZ PROC			; CF4DyuchiNET::Release
; File e:\github\mso_code\4dyuchinet_latest\factory.cpp
; Line 32
  00000	55		 push	 ebp
  00001	8b ec		 mov	 ebp, esp
  00003	83 ec 0c	 sub	 esp, 12			; 0000000cH
; Line 33
  00006	8b 45 08	 mov	 eax, DWORD PTR _this$[ebp]
  00009	8b 40 04	 mov	 eax, DWORD PTR [eax+4]
  0000c	48		 dec	 eax
  0000d	8b 4d 08	 mov	 ecx, DWORD PTR _this$[ebp]
  00010	89 41 04	 mov	 DWORD PTR [ecx+4], eax
; Line 34
  00013	8b 45 08	 mov	 eax, DWORD PTR _this$[ebp]
  00016	83 78 04 00	 cmp	 DWORD PTR [eax+4], 0
  0001a	75 37		 jne	 SHORT $LN1@Release
; Line 36
  0001c	8b 45 08	 mov	 eax, DWORD PTR _this$[ebp]
  0001f	89 45 f8	 mov	 DWORD PTR $T1[ebp], eax
  00022	8b 45 f8	 mov	 eax, DWORD PTR $T1[ebp]
  00025	89 45 fc	 mov	 DWORD PTR $T2[ebp], eax
  00028	83 7d fc 00	 cmp	 DWORD PTR $T2[ebp], 0
  0002c	74 21		 je	 SHORT $LN4@Release
  0002e	8b 4d fc	 mov	 ecx, DWORD PTR $T2[ebp]
  00031	e8 00 00 00 00	 call	 ??1CF4DyuchiNET@@QAE@XZ	; CF4DyuchiNET::~CF4DyuchiNET
  00036	33 c0		 xor	 eax, eax
  00038	40		 inc	 eax
  00039	83 e0 01	 and	 eax, 1
  0003c	74 09		 je	 SHORT $LN7@Release
  0003e	ff 75 fc	 push	 DWORD PTR $T2[ebp]
  00041	e8 00 00 00 00	 call	 ??3@YAXPAX@Z		; operator delete
  00046	59		 pop	 ecx
$LN7@Release:
  00047	8b 45 fc	 mov	 eax, DWORD PTR $T2[ebp]
  0004a	89 45 f4	 mov	 DWORD PTR tv74[ebp], eax
  0004d	eb 04		 jmp	 SHORT $LN1@Release
$LN4@Release:
  0004f	83 65 f4 00	 and	 DWORD PTR tv74[ebp], 0
$LN1@Release:
; Line 38
  00053	33 c0		 xor	 eax, eax
; Line 39
  00055	8b e5		 mov	 esp, ebp
  00057	5d		 pop	 ebp
  00058	c2 04 00	 ret	 4
?Release@CF4DyuchiNET@@UAGKXZ ENDP			; CF4DyuchiNET::Release
_TEXT	ENDS
; Function compile flags: /Odspy
_TEXT	SEGMENT
_this$ = 8						; size = 4
?AddRef@CF4DyuchiNET@@UAGKXZ PROC			; CF4DyuchiNET::AddRef
; File e:\github\mso_code\4dyuchinet_latest\factory.cpp
; Line 26
  00000	55		 push	 ebp
  00001	8b ec		 mov	 ebp, esp
; Line 27
  00003	8b 45 08	 mov	 eax, DWORD PTR _this$[ebp]
  00006	8b 40 04	 mov	 eax, DWORD PTR [eax+4]
  00009	40		 inc	 eax
  0000a	8b 4d 08	 mov	 ecx, DWORD PTR _this$[ebp]
  0000d	89 41 04	 mov	 DWORD PTR [ecx+4], eax
; Line 28
  00010	8b 45 08	 mov	 eax, DWORD PTR _this$[ebp]
  00013	8b 40 04	 mov	 eax, DWORD PTR [eax+4]
; Line 29
  00016	5d		 pop	 ebp
  00017	c2 04 00	 ret	 4
?AddRef@CF4DyuchiNET@@UAGKXZ ENDP			; CF4DyuchiNET::AddRef
_TEXT	ENDS
; Function compile flags: /Odspy
_TEXT	SEGMENT
tv130 = -24						; size = 4
tv89 = -20						; size = 4
tv92 = -16						; size = 4
tv132 = -12						; size = 4
tv83 = -8						; size = 4
tv91 = -4						; size = 4
_this$ = 8						; size = 4
_refiid$ = 12						; size = 4
_ppv$ = 16						; size = 4
?QueryInterface@CF4DyuchiNET@@UAGJABU_GUID@@PAPAX@Z PROC ; CF4DyuchiNET::QueryInterface
; File e:\github\mso_code\4dyuchinet_latest\factory.cpp
; Line 13
  00000	55		 push	 ebp
  00001	8b ec		 mov	 ebp, esp
  00003	83 ec 18	 sub	 esp, 24			; 00000018H
; File c:\program files (x86)\windows kits\8.1\include\shared\guiddef.h
; Line 161
  00006	6a 10		 push	 16			; 00000010H
  00008	ff 75 0c	 push	 DWORD PTR _refiid$[ebp]
  0000b	68 00 00 00 00	 push	 OFFSET _IID_IUnknown
  00010	e8 00 00 00 00	 call	 _memcmp
  00015	83 c4 0c	 add	 esp, 12			; 0000000cH
  00018	89 45 ec	 mov	 DWORD PTR tv89[ebp], eax
  0001b	83 7d ec 00	 cmp	 DWORD PTR tv89[ebp], 0
  0001f	75 09		 jne	 SHORT $LN11@QueryInter
  00021	c7 45 fc 01 00
	00 00		 mov	 DWORD PTR tv91[ebp], 1
  00028	eb 04		 jmp	 SHORT $LN9@QueryInter
$LN11@QueryInter:
  0002a	83 65 fc 00	 and	 DWORD PTR tv91[ebp], 0
$LN9@QueryInter:
; Line 194
  0002e	83 7d fc 00	 cmp	 DWORD PTR tv91[ebp], 0
  00032	74 09		 je	 SHORT $LN7@QueryInter
  00034	c7 45 f8 01 00
	00 00		 mov	 DWORD PTR tv83[ebp], 1
  0003b	eb 04		 jmp	 SHORT $LN5@QueryInter
$LN7@QueryInter:
  0003d	83 65 f8 00	 and	 DWORD PTR tv83[ebp], 0
$LN5@QueryInter:
; File e:\github\mso_code\4dyuchinet_latest\factory.cpp
; Line 14
  00041	0f b6 45 f8	 movzx	 eax, BYTE PTR tv83[ebp]
  00045	85 c0		 test	 eax, eax
  00047	75 43		 jne	 SHORT $LN1@QueryInter
; File c:\program files (x86)\windows kits\8.1\include\shared\guiddef.h
; Line 161
  00049	6a 10		 push	 16			; 00000010H
  0004b	ff 75 0c	 push	 DWORD PTR _refiid$[ebp]
  0004e	68 00 00 00 00	 push	 OFFSET _IID_IClassFactory
  00053	e8 00 00 00 00	 call	 _memcmp
  00058	83 c4 0c	 add	 esp, 12			; 0000000cH
  0005b	89 45 e8	 mov	 DWORD PTR tv130[ebp], eax
  0005e	83 7d e8 00	 cmp	 DWORD PTR tv130[ebp], 0
  00062	75 09		 jne	 SHORT $LN19@QueryInter
  00064	c7 45 f4 01 00
	00 00		 mov	 DWORD PTR tv132[ebp], 1
  0006b	eb 04		 jmp	 SHORT $LN17@QueryInter
$LN19@QueryInter:
  0006d	83 65 f4 00	 and	 DWORD PTR tv132[ebp], 0
$LN17@QueryInter:
; Line 194
  00071	83 7d f4 00	 cmp	 DWORD PTR tv132[ebp], 0
  00075	74 09		 je	 SHORT $LN15@QueryInter
  00077	c7 45 f0 01 00
	00 00		 mov	 DWORD PTR tv92[ebp], 1
  0007e	eb 04		 jmp	 SHORT $LN13@QueryInter
$LN15@QueryInter:
  00080	83 65 f0 00	 and	 DWORD PTR tv92[ebp], 0
$LN13@QueryInter:
; File e:\github\mso_code\4dyuchinet_latest\factory.cpp
; Line 14
  00084	0f b6 45 f0	 movzx	 eax, BYTE PTR tv92[ebp]
  00088	85 c0		 test	 eax, eax
  0008a	74 1b		 je	 SHORT $LN2@QueryInter
$LN1@QueryInter:
; Line 16
  0008c	8b 45 10	 mov	 eax, DWORD PTR _ppv$[ebp]
  0008f	8b 4d 08	 mov	 ecx, DWORD PTR _this$[ebp]
  00092	89 08		 mov	 DWORD PTR [eax], ecx
; Line 17
  00094	8b 45 10	 mov	 eax, DWORD PTR _ppv$[ebp]
  00097	8b 00		 mov	 eax, DWORD PTR [eax]
  00099	8b 4d 10	 mov	 ecx, DWORD PTR _ppv$[ebp]
  0009c	8b 00		 mov	 eax, DWORD PTR [eax]
  0009e	ff 31		 push	 DWORD PTR [ecx]
  000a0	ff 50 04	 call	 DWORD PTR [eax+4]
; Line 18
  000a3	33 c0		 xor	 eax, eax
  000a5	eb 0b		 jmp	 SHORT $LN3@QueryInter
$LN2@QueryInter:
; Line 21
  000a7	8b 45 10	 mov	 eax, DWORD PTR _ppv$[ebp]
  000aa	83 20 00	 and	 DWORD PTR [eax], 0
; Line 22
  000ad	b8 02 40 00 80	 mov	 eax, -2147467262	; 80004002H
$LN3@QueryInter:
; Line 23
  000b2	8b e5		 mov	 esp, ebp
  000b4	5d		 pop	 ebp
  000b5	c2 0c 00	 ret	 12			; 0000000cH
?QueryInterface@CF4DyuchiNET@@UAGJABU_GUID@@PAPAX@Z ENDP ; CF4DyuchiNET::QueryInterface
_TEXT	ENDS
END
