; Listing generated by Microsoft (R) Optimizing Compiler Version 18.00.30501.0 

	TITLE	E:\GitHub\Mso_Code\4DyuchiNET_Latest\network.cpp
	.686P
	.XMM
	include listing.inc
	.model	flat

INCLUDELIB LIBCMT
INCLUDELIB OLDNAMES

PUBLIC	?g_pNetworkForUser@@3PAVCNetwork@@A		; g_pNetworkForUser
PUBLIC	?g_pNetworkForServer@@3PAVCNetwork@@A		; g_pNetworkForServer
_BSS	SEGMENT
?g_pNetworkForUser@@3PAVCNetwork@@A DD 01H DUP (?)	; g_pNetworkForUser
?g_pNetworkForServer@@3PAVCNetwork@@A DD 01H DUP (?)	; g_pNetworkForServer
_BSS	ENDS
CONST	SEGMENT
$SG91734 DB	'Error', 00H
	ORG $+2
$SG91735 DB	'Fail to create socket', 00H
	ORG $+2
$SG91740 DB	'Error', 00H
	ORG $+2
$SG91741 DB	'Socket Listen Fail', 00H
	ORG $+1
$SG91773 DB	'disconnectd %d', 00H
	ORG $+1
$SG91799 DB	'Error', 00H
	ORG $+2
$SG91800 DB	'CreateIoCompletionPort failed with error', 00H
	ORG $+3
$SG91802 DB	'AddConnection %d', 00H
	ORG $+3
$SG91820 DB	'Error', 00H
	ORG $+2
$SG91821 DB	'Network ID illegal', 00H
CONST	ENDS
PUBLIC	?AllocConnection@CNetwork@@AAEPAVCConnection@@XZ ; CNetwork::AllocConnection
PUBLIC	?FreeConnection@CNetwork@@AAEXPAVCConnection@@@Z ; CNetwork::FreeConnection
PUBLIC	?ReleaseListenSocket@CNetwork@@QAEXXZ		; CNetwork::ReleaseListenSocket
PUBLIC	?AddConnection@CNetwork@@QAEPAVCConnection@@I@Z	; CNetwork::AddConnection
PUBLIC	?CompulsiveDisconnect@CNetwork@@QAEXK@Z		; CNetwork::CompulsiveDisconnect
PUBLIC	?Broadcast@CNetwork@@QAEXPADKK@Z		; CNetwork::Broadcast
PUBLIC	?SetConnectionType@CNetwork@@QAEXPAVCConnection@@W4NETWORK_ID@@@Z ; CNetwork::SetConnectionType
PUBLIC	?Send@CNetwork@@QAEHKPADKK@Z			; CNetwork::Send
PUBLIC	?Send@CNetwork@@QAEHKPAU_WSABUF@@KK@Z		; CNetwork::Send
PUBLIC	?Send@CNetwork@@QAEHKPAUPACKET_LIST@@K@Z	; CNetwork::Send
PUBLIC	?GetConnection@CNetwork@@QAEXPAPAVCConnection@@K@Z ; CNetwork::GetConnection
PUBLIC	?SetBufferSizePerConnection@CNetwork@@QAEXK@Z	; CNetwork::SetBufferSizePerConnection
PUBLIC	?ConnectToServer@CNetwork@@QAEHPADGP6GXKPAX@ZP6GX1@Z1@Z ; CNetwork::ConnectToServer
PUBLIC	?StartServer@CNetwork@@QAEHPADG@Z		; CNetwork::StartServer
PUBLIC	?CloseAllConnection@CNetwork@@QAEXXZ		; CNetwork::CloseAllConnection
PUBLIC	?CloseConnection@CNetwork@@QAEXK@Z		; CNetwork::CloseConnection
PUBLIC	??0CNetwork@@QAE@W4NETWORK_ID@@KKK@Z		; CNetwork::CNetwork
PUBLIC	??1CNetwork@@QAE@XZ				; CNetwork::~CNetwork
EXTRN	??2@YAPAXI@Z:PROC				; operator new
EXTRN	??3@YAXPAX@Z:PROC				; operator delete
EXTRN	__imp__CloseHandle@4:PROC
EXTRN	__imp__CreateIoCompletionPort@16:PROC
EXTRN	__imp__lstrlenA@4:PROC
EXTRN	__imp__wsprintfA:PROC
EXTRN	__imp__GetActiveWindow@0:PROC
EXTRN	__imp__MessageBoxA@16:PROC
EXTRN	__imp__bind@12:PROC
EXTRN	__imp__closesocket@4:PROC
EXTRN	__imp__getpeername@12:PROC
EXTRN	__imp__htons@4:PROC
EXTRN	__imp__inet_addr@4:PROC
EXTRN	__imp__listen@8:PROC
EXTRN	__imp__setsockopt@20:PROC
EXTRN	__imp__socket@12:PROC
EXTRN	__imp__WSAIoctl@36:PROC
EXTRN	?Initialize@CDynamicMemoryContainer@@QAEHKKKW4MEMORY_TYPE@@@Z:PROC ; CDynamicMemoryContainer::Initialize
EXTRN	??0CDynamicMemoryContainer@@QAE@XZ:PROC		; CDynamicMemoryContainer::CDynamicMemoryContainer
EXTRN	??1CDynamicMemoryContainer@@QAE@XZ:PROC		; CDynamicMemoryContainer::~CDynamicMemoryContainer
EXTRN	?CloseSocket@CConnection@@QAEXXZ:PROC		; CConnection::CloseSocket
EXTRN	?Send@CConnection@@QAEHPADKK@Z:PROC		; CConnection::Send
EXTRN	?Send@CConnection@@QAEHPADK@Z:PROC		; CConnection::Send
EXTRN	?Send@CConnection@@QAEHPAU_WSABUF@@K@Z:PROC	; CConnection::Send
EXTRN	?Send@CConnection@@QAEHPAUPACKET_LIST@@@Z:PROC	; CConnection::Send
EXTRN	?Initialize@CConnection@@QAEHIKHH@Z:PROC	; CConnection::Initialize
EXTRN	??0CConnection@@QAE@XZ:PROC			; CConnection::CConnection
EXTRN	??1CConnection@@QAE@XZ:PROC			; CConnection::~CConnection
EXTRN	?Initialize@CIndexCreator@@QAEHK@Z:PROC		; CIndexCreator::Initialize
EXTRN	??0CIndexCreator@@QAE@XZ:PROC			; CIndexCreator::CIndexCreator
EXTRN	??1CIndexCreator@@QAE@XZ:PROC			; CIndexCreator::~CIndexCreator
EXTRN	?ICAllocIndex@@YGKPAVCIndexCreator@@@Z:PROC	; ICAllocIndex
EXTRN	?ICFreeIndex@@YGXPAVCIndexCreator@@K@Z:PROC	; ICFreeIndex
EXTRN	?PostDisconnectEvent@@YAXK@Z:PROC		; PostDisconnectEvent
EXTRN	?WriteLog@CLogManager@@QAEHPADK@Z:PROC		; CLogManager::WriteLog
EXTRN	?StartAcceptThread@@YAHPAVCNetwork@@@Z:PROC	; StartAcceptThread
EXTRN	?EndAcceptThread@@YAHIPAX@Z:PROC		; EndAcceptThread
EXTRN	?Connect@@YAHPADGP6GXKPAX@ZP6GX1@ZPAVCNetwork@@1@Z:PROC ; Connect
EXTRN	@__security_check_cookie@4:PROC
EXTRN	___CxxFrameHandler3:PROC
EXTRN	_memset:PROC
EXTRN	?g_hCompletionPort@@3PAXA:DWORD			; g_hCompletionPort
EXTRN	?g_pLogManager@@3PAVCLogManager@@A:DWORD	; g_pLogManager
EXTRN	___security_cookie:DWORD
xdata$x	SEGMENT
__unwindtable$??1CNetwork@@QAE@XZ DD 0ffffffffH
	DD	FLAT:__unwindfunclet$??1CNetwork@@QAE@XZ$0
__unwindtable$??0CNetwork@@QAE@W4NETWORK_ID@@KKK@Z DD 0ffffffffH
	DD	FLAT:__unwindfunclet$??0CNetwork@@QAE@W4NETWORK_ID@@KKK@Z$0
__unwindtable$?AllocConnection@CNetwork@@AAEPAVCConnection@@XZ DD 0ffffffffH
	DD	FLAT:__unwindfunclet$?AllocConnection@CNetwork@@AAEPAVCConnection@@XZ$1
__unwindtable$?SetBufferSizePerConnection@CNetwork@@QAEXK@Z DD 0ffffffffH
	DD	FLAT:__unwindfunclet$?SetBufferSizePerConnection@CNetwork@@QAEXK@Z$0
	DD	0ffffffffH
	DD	FLAT:__unwindfunclet$?SetBufferSizePerConnection@CNetwork@@QAEXK@Z$1
__ehfuncinfo$??1CNetwork@@QAE@XZ DD 019930522H
	DD	01H
	DD	FLAT:__unwindtable$??1CNetwork@@QAE@XZ
	DD	2 DUP(00H)
	DD	2 DUP(00H)
	DD	00H
	DD	01H
__ehfuncinfo$??0CNetwork@@QAE@W4NETWORK_ID@@KKK@Z DD 019930522H
	DD	01H
	DD	FLAT:__unwindtable$??0CNetwork@@QAE@W4NETWORK_ID@@KKK@Z
	DD	2 DUP(00H)
	DD	2 DUP(00H)
	DD	00H
	DD	01H
__ehfuncinfo$?SetBufferSizePerConnection@CNetwork@@QAEXK@Z DD 019930522H
	DD	02H
	DD	FLAT:__unwindtable$?SetBufferSizePerConnection@CNetwork@@QAEXK@Z
	DD	2 DUP(00H)
	DD	2 DUP(00H)
	DD	00H
	DD	01H
__ehfuncinfo$?AllocConnection@CNetwork@@AAEPAVCConnection@@XZ DD 019930522H
	DD	01H
	DD	FLAT:__unwindtable$?AllocConnection@CNetwork@@AAEPAVCConnection@@XZ
	DD	2 DUP(00H)
	DD	2 DUP(00H)
	DD	00H
	DD	01H
xdata$x	ENDS
; Function compile flags: /Odspy
_TEXT	SEGMENT
tv129 = -64						; size = 4
$T2 = -60						; size = 4
tv88 = -56						; size = 4
$T3 = -52						; size = 4
tv80 = -48						; size = 4
$T4 = -44						; size = 4
$T5 = -40						; size = 4
_next$ = -36						; size = 4
$T6 = -32						; size = 4
$T7 = -28						; size = 4
_cur$ = -24						; size = 4
$T8 = -20						; size = 4
_this$ = -16						; size = 4
__$EHRec$ = -12						; size = 12
??1CNetwork@@QAE@XZ PROC				; CNetwork::~CNetwork
; _this$ = ecx
; File e:\github\mso_code\4dyuchinet_latest\network.cpp
; Line 436
  00000	55		 push	 ebp
  00001	8b ec		 mov	 ebp, esp
  00003	6a ff		 push	 -1
  00005	68 00 00 00 00	 push	 __ehhandler$??1CNetwork@@QAE@XZ
  0000a	64 a1 00 00 00
	00		 mov	 eax, DWORD PTR fs:0
  00010	50		 push	 eax
  00011	83 ec 34	 sub	 esp, 52			; 00000034H
  00014	a1 00 00 00 00	 mov	 eax, DWORD PTR ___security_cookie
  00019	33 c5		 xor	 eax, ebp
  0001b	50		 push	 eax
  0001c	8d 45 f4	 lea	 eax, DWORD PTR __$EHRec$[ebp]
  0001f	64 a3 00 00 00
	00		 mov	 DWORD PTR fs:0, eax
  00025	89 4d f0	 mov	 DWORD PTR _this$[ebp], ecx
  00028	83 65 fc 00	 and	 DWORD PTR __$EHRec$[ebp+8], 0
; Line 438
  0002c	8b 4d f0	 mov	 ecx, DWORD PTR _this$[ebp]
  0002f	e8 00 00 00 00	 call	 ?CloseAllConnection@CNetwork@@QAEXXZ ; CNetwork::CloseAllConnection
; Line 441
  00034	8b 45 f0	 mov	 eax, DWORD PTR _this$[ebp]
  00037	83 78 04 00	 cmp	 DWORD PTR [eax+4], 0
  0003b	74 19		 je	 SHORT $LN6@CNetwork
; Line 443
  0003d	8b 45 f0	 mov	 eax, DWORD PTR _this$[ebp]
  00040	8b 40 04	 mov	 eax, DWORD PTR [eax+4]
  00043	89 45 d8	 mov	 DWORD PTR $T5[ebp], eax
  00046	ff 75 d8	 push	 DWORD PTR $T5[ebp]
  00049	e8 00 00 00 00	 call	 ??3@YAXPAX@Z		; operator delete
  0004e	59		 pop	 ecx
; Line 444
  0004f	8b 45 f0	 mov	 eax, DWORD PTR _this$[ebp]
  00052	83 60 04 00	 and	 DWORD PTR [eax+4], 0
$LN6@CNetwork:
; Line 448
  00056	8b 45 f0	 mov	 eax, DWORD PTR _this$[ebp]
  00059	8b 40 20	 mov	 eax, DWORD PTR [eax+32]
  0005c	89 45 e8	 mov	 DWORD PTR _cur$[ebp], eax
; Line 449
  0005f	83 65 dc 00	 and	 DWORD PTR _next$[ebp], 0
$LN5@CNetwork:
; Line 451
  00063	83 7d e8 00	 cmp	 DWORD PTR _cur$[ebp], 0
  00067	74 48		 je	 SHORT $LN4@CNetwork
; File e:\github\mso_code\4dyuchinet_latest\connection.h
; Line 38
  00069	8b 45 e8	 mov	 eax, DWORD PTR _cur$[ebp]
  0006c	8b 40 24	 mov	 eax, DWORD PTR [eax+36]
  0006f	89 45 dc	 mov	 DWORD PTR _next$[ebp], eax
; File e:\github\mso_code\4dyuchinet_latest\network.cpp
; Line 454
  00072	8b 45 e8	 mov	 eax, DWORD PTR _cur$[ebp]
  00075	89 45 d4	 mov	 DWORD PTR $T4[ebp], eax
  00078	8b 45 d4	 mov	 eax, DWORD PTR $T4[ebp]
  0007b	89 45 ec	 mov	 DWORD PTR $T8[ebp], eax
  0007e	83 7d ec 00	 cmp	 DWORD PTR $T8[ebp], 0
  00082	74 21		 je	 SHORT $LN9@CNetwork
  00084	8b 4d ec	 mov	 ecx, DWORD PTR $T8[ebp]
  00087	e8 00 00 00 00	 call	 ??1CConnection@@QAE@XZ	; CConnection::~CConnection
  0008c	33 c0		 xor	 eax, eax
  0008e	40		 inc	 eax
  0008f	83 e0 01	 and	 eax, 1
  00092	74 09		 je	 SHORT $LN19@CNetwork
  00094	ff 75 ec	 push	 DWORD PTR $T8[ebp]
  00097	e8 00 00 00 00	 call	 ??3@YAXPAX@Z		; operator delete
  0009c	59		 pop	 ecx
$LN19@CNetwork:
  0009d	8b 45 ec	 mov	 eax, DWORD PTR $T8[ebp]
  000a0	89 45 d0	 mov	 DWORD PTR tv80[ebp], eax
  000a3	eb 04		 jmp	 SHORT $LN10@CNetwork
$LN9@CNetwork:
  000a5	83 65 d0 00	 and	 DWORD PTR tv80[ebp], 0
$LN10@CNetwork:
; Line 455
  000a9	8b 45 dc	 mov	 eax, DWORD PTR _next$[ebp]
  000ac	89 45 e8	 mov	 DWORD PTR _cur$[ebp], eax
; Line 457
  000af	eb b2		 jmp	 SHORT $LN5@CNetwork
$LN4@CNetwork:
; Line 458
  000b1	8b 45 f0	 mov	 eax, DWORD PTR _this$[ebp]
  000b4	83 78 6c 00	 cmp	 DWORD PTR [eax+108], 0
  000b8	74 41		 je	 SHORT $LN3@CNetwork
; Line 460
  000ba	8b 45 f0	 mov	 eax, DWORD PTR _this$[ebp]
  000bd	8b 40 6c	 mov	 eax, DWORD PTR [eax+108]
  000c0	89 45 cc	 mov	 DWORD PTR $T3[ebp], eax
  000c3	8b 45 cc	 mov	 eax, DWORD PTR $T3[ebp]
  000c6	89 45 e4	 mov	 DWORD PTR $T7[ebp], eax
  000c9	83 7d e4 00	 cmp	 DWORD PTR $T7[ebp], 0
  000cd	74 21		 je	 SHORT $LN11@CNetwork
  000cf	8b 4d e4	 mov	 ecx, DWORD PTR $T7[ebp]
  000d2	e8 00 00 00 00	 call	 ??1CDynamicMemoryContainer@@QAE@XZ ; CDynamicMemoryContainer::~CDynamicMemoryContainer
  000d7	33 c0		 xor	 eax, eax
  000d9	40		 inc	 eax
  000da	83 e0 01	 and	 eax, 1
  000dd	74 09		 je	 SHORT $LN22@CNetwork
  000df	ff 75 e4	 push	 DWORD PTR $T7[ebp]
  000e2	e8 00 00 00 00	 call	 ??3@YAXPAX@Z		; operator delete
  000e7	59		 pop	 ecx
$LN22@CNetwork:
  000e8	8b 45 e4	 mov	 eax, DWORD PTR $T7[ebp]
  000eb	89 45 c8	 mov	 DWORD PTR tv88[ebp], eax
  000ee	eb 04		 jmp	 SHORT $LN12@CNetwork
$LN11@CNetwork:
  000f0	83 65 c8 00	 and	 DWORD PTR tv88[ebp], 0
$LN12@CNetwork:
; Line 461
  000f4	8b 45 f0	 mov	 eax, DWORD PTR _this$[ebp]
  000f7	83 60 6c 00	 and	 DWORD PTR [eax+108], 0
$LN3@CNetwork:
; Line 464
  000fb	8b 45 f0	 mov	 eax, DWORD PTR _this$[ebp]
  000fe	83 78 68 00	 cmp	 DWORD PTR [eax+104], 0
  00102	74 41		 je	 SHORT $LN2@CNetwork
; Line 466
  00104	8b 45 f0	 mov	 eax, DWORD PTR _this$[ebp]
  00107	8b 40 68	 mov	 eax, DWORD PTR [eax+104]
  0010a	89 45 c4	 mov	 DWORD PTR $T2[ebp], eax
  0010d	8b 45 c4	 mov	 eax, DWORD PTR $T2[ebp]
  00110	89 45 e0	 mov	 DWORD PTR $T6[ebp], eax
  00113	83 7d e0 00	 cmp	 DWORD PTR $T6[ebp], 0
  00117	74 21		 je	 SHORT $LN13@CNetwork
  00119	8b 4d e0	 mov	 ecx, DWORD PTR $T6[ebp]
  0011c	e8 00 00 00 00	 call	 ??1CDynamicMemoryContainer@@QAE@XZ ; CDynamicMemoryContainer::~CDynamicMemoryContainer
  00121	33 c0		 xor	 eax, eax
  00123	40		 inc	 eax
  00124	83 e0 01	 and	 eax, 1
  00127	74 09		 je	 SHORT $LN25@CNetwork
  00129	ff 75 e0	 push	 DWORD PTR $T6[ebp]
  0012c	e8 00 00 00 00	 call	 ??3@YAXPAX@Z		; operator delete
  00131	59		 pop	 ecx
$LN25@CNetwork:
  00132	8b 45 e0	 mov	 eax, DWORD PTR $T6[ebp]
  00135	89 45 c0	 mov	 DWORD PTR tv129[ebp], eax
  00138	eb 04		 jmp	 SHORT $LN14@CNetwork
$LN13@CNetwork:
  0013a	83 65 c0 00	 and	 DWORD PTR tv129[ebp], 0
$LN14@CNetwork:
; Line 467
  0013e	8b 45 f0	 mov	 eax, DWORD PTR _this$[ebp]
  00141	83 60 68 00	 and	 DWORD PTR [eax+104], 0
$LN2@CNetwork:
; Line 469
  00145	8b 45 f0	 mov	 eax, DWORD PTR _this$[ebp]
  00148	83 78 74 00	 cmp	 DWORD PTR [eax+116], 0
  0014c	74 15		 je	 SHORT $LN7@CNetwork
  0014e	8b 45 f0	 mov	 eax, DWORD PTR _this$[ebp]
  00151	83 78 74 ff	 cmp	 DWORD PTR [eax+116], -1
  00155	74 0c		 je	 SHORT $LN7@CNetwork
; Line 470
  00157	8b 45 f0	 mov	 eax, DWORD PTR _this$[ebp]
  0015a	ff 70 74	 push	 DWORD PTR [eax+116]
  0015d	ff 15 00 00 00
	00		 call	 DWORD PTR __imp__CloseHandle@4
$LN7@CNetwork:
; Line 472
  00163	83 4d fc ff	 or	 DWORD PTR __$EHRec$[ebp+8], -1
  00167	8b 4d f0	 mov	 ecx, DWORD PTR _this$[ebp]
  0016a	83 c1 08	 add	 ecx, 8
  0016d	e8 00 00 00 00	 call	 ??1CIndexCreator@@QAE@XZ ; CIndexCreator::~CIndexCreator
  00172	8b 4d f4	 mov	 ecx, DWORD PTR __$EHRec$[ebp]
  00175	64 89 0d 00 00
	00 00		 mov	 DWORD PTR fs:0, ecx
  0017c	59		 pop	 ecx
  0017d	8b e5		 mov	 esp, ebp
  0017f	5d		 pop	 ebp
  00180	c3		 ret	 0
_TEXT	ENDS
text$x	SEGMENT
__unwindfunclet$??1CNetwork@@QAE@XZ$0:
  00000	8b 4d f0	 mov	 ecx, DWORD PTR _this$[ebp]
  00003	83 c1 08	 add	 ecx, 8
  00006	e9 00 00 00 00	 jmp	 ??1CIndexCreator@@QAE@XZ ; CIndexCreator::~CIndexCreator
__ehhandler$??1CNetwork@@QAE@XZ:
  0000b	8b 54 24 08	 mov	 edx, DWORD PTR [esp+8]
  0000f	8d 42 0c	 lea	 eax, DWORD PTR [edx+12]
  00012	8b 4a c8	 mov	 ecx, DWORD PTR [edx-56]
  00015	33 c8		 xor	 ecx, eax
  00017	e8 00 00 00 00	 call	 @__security_check_cookie@4
  0001c	b8 00 00 00 00	 mov	 eax, OFFSET __ehfuncinfo$??1CNetwork@@QAE@XZ
  00021	e9 00 00 00 00	 jmp	 ___CxxFrameHandler3
text$x	ENDS
??1CNetwork@@QAE@XZ ENDP				; CNetwork::~CNetwork
; Function compile flags: /Odspy
_TEXT	SEGMENT
$T2 = -20						; size = 4
_this$ = -16						; size = 4
__$EHRec$ = -12						; size = 12
_id$ = 8						; size = 4
_num$ = 12						; size = 4
_dwAcceptInterval$ = 16					; size = 4
_dwFlag$ = 20						; size = 4
??0CNetwork@@QAE@W4NETWORK_ID@@KKK@Z PROC		; CNetwork::CNetwork
; _this$ = ecx
; File e:\github\mso_code\4dyuchinet_latest\network.cpp
; Line 17
  00000	55		 push	 ebp
  00001	8b ec		 mov	 ebp, esp
  00003	6a ff		 push	 -1
  00005	68 00 00 00 00	 push	 __ehhandler$??0CNetwork@@QAE@W4NETWORK_ID@@KKK@Z
  0000a	64 a1 00 00 00
	00		 mov	 eax, DWORD PTR fs:0
  00010	50		 push	 eax
  00011	51		 push	 ecx
  00012	51		 push	 ecx
  00013	57		 push	 edi
  00014	a1 00 00 00 00	 mov	 eax, DWORD PTR ___security_cookie
  00019	33 c5		 xor	 eax, ebp
  0001b	50		 push	 eax
  0001c	8d 45 f4	 lea	 eax, DWORD PTR __$EHRec$[ebp]
  0001f	64 a3 00 00 00
	00		 mov	 DWORD PTR fs:0, eax
  00025	89 4d f0	 mov	 DWORD PTR _this$[ebp], ecx
  00028	8b 4d f0	 mov	 ecx, DWORD PTR _this$[ebp]
  0002b	83 c1 08	 add	 ecx, 8
  0002e	e8 00 00 00 00	 call	 ??0CIndexCreator@@QAE@XZ ; CIndexCreator::CIndexCreator
  00033	83 65 fc 00	 and	 DWORD PTR __$EHRec$[ebp+8], 0
; Line 19
  00037	8b 45 f0	 mov	 eax, DWORD PTR _this$[ebp]
  0003a	83 60 68 00	 and	 DWORD PTR [eax+104], 0
; Line 20
  0003e	8b 45 f0	 mov	 eax, DWORD PTR _this$[ebp]
  00041	83 60 6c 00	 and	 DWORD PTR [eax+108], 0
; Line 21
  00045	8b 45 f0	 mov	 eax, DWORD PTR _this$[ebp]
  00048	83 60 20 00	 and	 DWORD PTR [eax+32], 0
; Line 22
  0004c	8b 45 f0	 mov	 eax, DWORD PTR _this$[ebp]
  0004f	83 60 24 00	 and	 DWORD PTR [eax+36], 0
; Line 23
  00053	8b 45 f0	 mov	 eax, DWORD PTR _this$[ebp]
  00056	83 60 28 00	 and	 DWORD PTR [eax+40], 0
; Line 24
  0005a	8b 45 f0	 mov	 eax, DWORD PTR _this$[ebp]
  0005d	83 60 70 00	 and	 DWORD PTR [eax+112], 0
; Line 25
  00061	8b 45 f0	 mov	 eax, DWORD PTR _this$[ebp]
  00064	c7 40 50 00 20
	00 00		 mov	 DWORD PTR [eax+80], 8192 ; 00002000H
; Line 26
  0006b	8b 45 f0	 mov	 eax, DWORD PTR _this$[ebp]
  0006e	c7 40 54 00 20
	00 00		 mov	 DWORD PTR [eax+84], 8192 ; 00002000H
; Line 27
  00075	8b 45 f0	 mov	 eax, DWORD PTR _this$[ebp]
  00078	83 60 4c 00	 and	 DWORD PTR [eax+76], 0
; Line 28
  0007c	8b 45 f0	 mov	 eax, DWORD PTR _this$[ebp]
  0007f	83 48 38 ff	 or	 DWORD PTR [eax+56], -1
; Line 29
  00083	8b 45 f0	 mov	 eax, DWORD PTR _this$[ebp]
  00086	83 60 30 00	 and	 DWORD PTR [eax+48], 0
; Line 30
  0008a	8b 45 f0	 mov	 eax, DWORD PTR _this$[ebp]
  0008d	8b 4d 0c	 mov	 ecx, DWORD PTR _num$[ebp]
  00090	89 48 34	 mov	 DWORD PTR [eax+52], ecx
; Line 31
  00093	8b 45 f0	 mov	 eax, DWORD PTR _this$[ebp]
  00096	8b 4d 08	 mov	 ecx, DWORD PTR _id$[ebp]
  00099	89 08		 mov	 DWORD PTR [eax], ecx
; Line 32
  0009b	8b 45 f0	 mov	 eax, DWORD PTR _this$[ebp]
  0009e	83 60 04 00	 and	 DWORD PTR [eax+4], 0
; Line 33
  000a2	8b 45 f0	 mov	 eax, DWORD PTR _this$[ebp]
  000a5	83 60 30 00	 and	 DWORD PTR [eax+48], 0
; Line 34
  000a9	33 c0		 xor	 eax, eax
  000ab	8b 4d f0	 mov	 ecx, DWORD PTR _this$[ebp]
  000ae	66 89 41 2c	 mov	 WORD PTR [ecx+44], ax
; Line 35
  000b2	8b 45 f0	 mov	 eax, DWORD PTR _this$[ebp]
  000b5	8b 4d 10	 mov	 ecx, DWORD PTR _dwAcceptInterval$[ebp]
  000b8	89 48 64	 mov	 DWORD PTR [eax+100], ecx
; Line 40
  000bb	8b 45 14	 mov	 eax, DWORD PTR _dwFlag$[ebp]
  000be	83 e0 0f	 and	 eax, 15			; 0000000fH
  000c1	83 f8 01	 cmp	 eax, 1
  000c4	75 0c		 jne	 SHORT $LN2@CNetwork
; File e:\github\mso_code\4dyuchinet_latest\network.h
; Line 75
  000c6	8b 45 f0	 mov	 eax, DWORD PTR _this$[ebp]
  000c9	c7 40 70 01 00
	00 00		 mov	 DWORD PTR [eax+112], 1
; File e:\github\mso_code\4dyuchinet_latest\network.cpp
; Line 42
  000d0	eb 07		 jmp	 SHORT $LN1@CNetwork
$LN2@CNetwork:
; File e:\github\mso_code\4dyuchinet_latest\network.h
; Line 76
  000d2	8b 45 f0	 mov	 eax, DWORD PTR _this$[ebp]
  000d5	83 60 70 00	 and	 DWORD PTR [eax+112], 0
$LN1@CNetwork:
; File e:\github\mso_code\4dyuchinet_latest\network.cpp
; Line 45
  000d9	33 c0		 xor	 eax, eax
  000db	8b 7d f0	 mov	 edi, DWORD PTR _this$[ebp]
  000de	83 c7 3c	 add	 edi, 60			; 0000003cH
  000e1	ab		 stosd
  000e2	ab		 stosd
  000e3	ab		 stosd
  000e4	ab		 stosd
; Line 48
  000e5	8b 45 f0	 mov	 eax, DWORD PTR _this$[ebp]
  000e8	8b 40 34	 mov	 eax, DWORD PTR [eax+52]
  000eb	40		 inc	 eax
  000ec	33 c9		 xor	 ecx, ecx
  000ee	6a 08		 push	 8
  000f0	5a		 pop	 edx
  000f1	f7 e2		 mul	 edx
  000f3	0f 90 c1	 seto	 cl
  000f6	f7 d9		 neg	 ecx
  000f8	0b c8		 or	 ecx, eax
  000fa	51		 push	 ecx
  000fb	e8 00 00 00 00	 call	 ??2@YAPAXI@Z		; operator new
  00100	59		 pop	 ecx
  00101	89 45 ec	 mov	 DWORD PTR $T2[ebp], eax
  00104	8b 45 f0	 mov	 eax, DWORD PTR _this$[ebp]
  00107	8b 4d ec	 mov	 ecx, DWORD PTR $T2[ebp]
  0010a	89 48 04	 mov	 DWORD PTR [eax+4], ecx
; Line 49
  0010d	8b 45 f0	 mov	 eax, DWORD PTR _this$[ebp]
  00110	8b 40 34	 mov	 eax, DWORD PTR [eax+52]
  00113	8d 04 c5 08 00
	00 00		 lea	 eax, DWORD PTR [eax*8+8]
  0011a	50		 push	 eax
  0011b	6a 00		 push	 0
  0011d	8b 45 f0	 mov	 eax, DWORD PTR _this$[ebp]
  00120	ff 70 04	 push	 DWORD PTR [eax+4]
  00123	e8 00 00 00 00	 call	 _memset
  00128	83 c4 0c	 add	 esp, 12			; 0000000cH
; Line 51
  0012b	8b 45 f0	 mov	 eax, DWORD PTR _this$[ebp]
  0012e	ff 70 34	 push	 DWORD PTR [eax+52]
  00131	8b 4d f0	 mov	 ecx, DWORD PTR _this$[ebp]
  00134	83 c1 08	 add	 ecx, 8
  00137	e8 00 00 00 00	 call	 ?Initialize@CIndexCreator@@QAEHK@Z ; CIndexCreator::Initialize
; Line 52
  0013c	83 4d fc ff	 or	 DWORD PTR __$EHRec$[ebp+8], -1
  00140	8b 45 f0	 mov	 eax, DWORD PTR _this$[ebp]
  00143	8b 4d f4	 mov	 ecx, DWORD PTR __$EHRec$[ebp]
  00146	64 89 0d 00 00
	00 00		 mov	 DWORD PTR fs:0, ecx
  0014d	59		 pop	 ecx
  0014e	5f		 pop	 edi
  0014f	8b e5		 mov	 esp, ebp
  00151	5d		 pop	 ebp
  00152	c2 10 00	 ret	 16			; 00000010H
_TEXT	ENDS
text$x	SEGMENT
__unwindfunclet$??0CNetwork@@QAE@W4NETWORK_ID@@KKK@Z$0:
  00000	8b 4d f0	 mov	 ecx, DWORD PTR _this$[ebp]
  00003	83 c1 08	 add	 ecx, 8
  00006	e9 00 00 00 00	 jmp	 ??1CIndexCreator@@QAE@XZ ; CIndexCreator::~CIndexCreator
__ehhandler$??0CNetwork@@QAE@W4NETWORK_ID@@KKK@Z:
  0000b	8b 54 24 08	 mov	 edx, DWORD PTR [esp+8]
  0000f	8d 42 0c	 lea	 eax, DWORD PTR [edx+12]
  00012	8b 4a f0	 mov	 ecx, DWORD PTR [edx-16]
  00015	33 c8		 xor	 ecx, eax
  00017	e8 00 00 00 00	 call	 @__security_check_cookie@4
  0001c	b8 00 00 00 00	 mov	 eax, OFFSET __ehfuncinfo$??0CNetwork@@QAE@W4NETWORK_ID@@KKK@Z
  00021	e9 00 00 00 00	 jmp	 ___CxxFrameHandler3
text$x	ENDS
??0CNetwork@@QAE@W4NETWORK_ID@@KKK@Z ENDP		; CNetwork::CNetwork
; Function compile flags: /Odspy
_TEXT	SEGMENT
$T1 = -52						; size = 4
$T2 = -48						; size = 4
_pConnection$ = -44					; size = 4
_this$ = -40						; size = 4
_txt$3 = -36						; size = 32
__$ArrayPad$ = -4					; size = 4
_dwConnectionIndex$ = 8					; size = 4
?CloseConnection@CNetwork@@QAEXK@Z PROC			; CNetwork::CloseConnection
; _this$ = ecx
; File e:\github\mso_code\4dyuchinet_latest\network.cpp
; Line 267
  00000	55		 push	 ebp
  00001	8b ec		 mov	 ebp, esp
  00003	83 ec 34	 sub	 esp, 52			; 00000034H
  00006	a1 00 00 00 00	 mov	 eax, DWORD PTR ___security_cookie
  0000b	33 c5		 xor	 eax, ebp
  0000d	89 45 fc	 mov	 DWORD PTR __$ArrayPad$[ebp], eax
  00010	89 4d d8	 mov	 DWORD PTR _this$[ebp], ecx
; Line 276
  00013	8b 45 d8	 mov	 eax, DWORD PTR _this$[ebp]
  00016	8b 40 04	 mov	 eax, DWORD PTR [eax+4]
  00019	8b 4d 08	 mov	 ecx, DWORD PTR _dwConnectionIndex$[ebp]
  0001c	81 7c c8 04 f5
	03 00 00	 cmp	 DWORD PTR [eax+ecx*8+4], 1013 ; 000003f5H
  00024	74 0a		 je	 SHORT $LN5@CloseConne
; Line 277
  00026	e9 be 00 00 00	 jmp	 $lb_return$14
  0002b	e9 b9 00 00 00	 jmp	 $lb_return$14
$LN5@CloseConne:
; Line 284
  00030	8b 45 d8	 mov	 eax, DWORD PTR _this$[ebp]
  00033	8b 40 04	 mov	 eax, DWORD PTR [eax+4]
  00036	8b 4d 08	 mov	 ecx, DWORD PTR _dwConnectionIndex$[ebp]
  00039	8b 04 c8	 mov	 eax, DWORD PTR [eax+ecx*8]
  0003c	89 45 d4	 mov	 DWORD PTR _pConnection$[ebp], eax
; Line 285
  0003f	8b 45 d8	 mov	 eax, DWORD PTR _this$[ebp]
  00042	8b 40 04	 mov	 eax, DWORD PTR [eax+4]
  00045	8b 4d 08	 mov	 ecx, DWORD PTR _dwConnectionIndex$[ebp]
  00048	83 24 c8 00	 and	 DWORD PTR [eax+ecx*8], 0
; Line 286
  0004c	8b 45 d8	 mov	 eax, DWORD PTR _this$[ebp]
  0004f	8b 40 04	 mov	 eax, DWORD PTR [eax+4]
  00052	8b 4d 08	 mov	 ecx, DWORD PTR _dwConnectionIndex$[ebp]
  00055	83 64 c8 04 00	 and	 DWORD PTR [eax+ecx*8+4], 0
; Line 290
  0005a	83 7d d4 00	 cmp	 DWORD PTR _pConnection$[ebp], 0
  0005e	74 51		 je	 SHORT $LN3@CloseConne
; File e:\github\mso_code\4dyuchinet_latest\connection.h
; Line 49
  00060	8b 45 d4	 mov	 eax, DWORD PTR _pConnection$[ebp]
  00063	8b 40 08	 mov	 eax, DWORD PTR [eax+8]
  00066	89 45 d0	 mov	 DWORD PTR $T2[ebp], eax
; File e:\github\mso_code\4dyuchinet_latest\network.cpp
; Line 293
  00069	8b 45 d0	 mov	 eax, DWORD PTR $T2[ebp]
  0006c	3b 45 08	 cmp	 eax, DWORD PTR _dwConnectionIndex$[ebp]
  0006f	74 01		 je	 SHORT $LN2@CloseConne
; Line 294
  00071	cc		 int	 3
$LN2@CloseConne:
; File e:\github\mso_code\4dyuchinet_latest\connection.h
; Line 49
  00072	8b 45 d4	 mov	 eax, DWORD PTR _pConnection$[ebp]
  00075	8b 40 08	 mov	 eax, DWORD PTR [eax+8]
  00078	89 45 cc	 mov	 DWORD PTR $T1[ebp], eax
; File e:\github\mso_code\4dyuchinet_latest\network.cpp
; Line 296
  0007b	ff 75 cc	 push	 DWORD PTR $T1[ebp]
  0007e	8b 45 d8	 mov	 eax, DWORD PTR _this$[ebp]
  00081	83 c0 08	 add	 eax, 8
  00084	50		 push	 eax
  00085	e8 00 00 00 00	 call	 ?ICFreeIndex@@YGXPAVCIndexCreator@@K@Z ; ICFreeIndex
; File e:\github\mso_code\4dyuchinet_latest\connection.h
; Line 55
  0008a	8b 45 d4	 mov	 eax, DWORD PTR _pConnection$[ebp]
  0008d	83 60 04 00	 and	 DWORD PTR [eax+4], 0
; File e:\github\mso_code\4dyuchinet_latest\network.cpp
; Line 299
  00091	8b 4d d4	 mov	 ecx, DWORD PTR _pConnection$[ebp]
  00094	e8 00 00 00 00	 call	 ?CloseSocket@CConnection@@QAEXXZ ; CConnection::CloseSocket
; Line 300
  00099	ff 75 d4	 push	 DWORD PTR _pConnection$[ebp]
  0009c	8b 4d d8	 mov	 ecx, DWORD PTR _this$[ebp]
  0009f	e8 00 00 00 00	 call	 ?FreeConnection@CNetwork@@AAEXPAVCConnection@@@Z ; CNetwork::FreeConnection
; Line 301
  000a4	8b 45 d8	 mov	 eax, DWORD PTR _this$[ebp]
  000a7	8b 40 30	 mov	 eax, DWORD PTR [eax+48]
  000aa	48		 dec	 eax
  000ab	8b 4d d8	 mov	 ecx, DWORD PTR _this$[ebp]
  000ae	89 41 30	 mov	 DWORD PTR [ecx+48], eax
$LN3@CloseConne:
; Line 304
  000b1	83 3d 00 00 00
	00 00		 cmp	 DWORD PTR ?g_pLogManager@@3PAVCLogManager@@A, 0 ; g_pLogManager
  000b8	74 2f		 je	 SHORT $lb_return$14
; Line 307
  000ba	ff 75 08	 push	 DWORD PTR _dwConnectionIndex$[ebp]
  000bd	68 00 00 00 00	 push	 OFFSET $SG91773
  000c2	8d 45 dc	 lea	 eax, DWORD PTR _txt$3[ebp]
  000c5	50		 push	 eax
  000c6	ff 15 00 00 00
	00		 call	 DWORD PTR __imp__wsprintfA
  000cc	83 c4 0c	 add	 esp, 12			; 0000000cH
; Line 308
  000cf	8d 45 dc	 lea	 eax, DWORD PTR _txt$3[ebp]
  000d2	50		 push	 eax
  000d3	ff 15 00 00 00
	00		 call	 DWORD PTR __imp__lstrlenA@4
  000d9	50		 push	 eax
  000da	8d 45 dc	 lea	 eax, DWORD PTR _txt$3[ebp]
  000dd	50		 push	 eax
  000de	8b 0d 00 00 00
	00		 mov	 ecx, DWORD PTR ?g_pLogManager@@3PAVCLogManager@@A ; g_pLogManager
  000e4	e8 00 00 00 00	 call	 ?WriteLog@CLogManager@@QAEHPADK@Z ; CLogManager::WriteLog
$lb_return$14:
; Line 312
  000e9	8b 4d fc	 mov	 ecx, DWORD PTR __$ArrayPad$[ebp]
  000ec	33 cd		 xor	 ecx, ebp
  000ee	e8 00 00 00 00	 call	 @__security_check_cookie@4
  000f3	8b e5		 mov	 esp, ebp
  000f5	5d		 pop	 ebp
  000f6	c2 04 00	 ret	 4
?CloseConnection@CNetwork@@QAEXK@Z ENDP			; CNetwork::CloseConnection
_TEXT	ENDS
; Function compile flags: /Odspy
_TEXT	SEGMENT
_i$ = -8						; size = 4
_this$ = -4						; size = 4
?CloseAllConnection@CNetwork@@QAEXXZ PROC		; CNetwork::CloseAllConnection
; _this$ = ecx
; File e:\github\mso_code\4dyuchinet_latest\network.cpp
; Line 240
  00000	55		 push	 ebp
  00001	8b ec		 mov	 ebp, esp
  00003	51		 push	 ecx
  00004	51		 push	 ecx
  00005	89 4d fc	 mov	 DWORD PTR _this$[ebp], ecx
; Line 244
  00008	8b 45 fc	 mov	 eax, DWORD PTR _this$[ebp]
  0000b	83 78 04 00	 cmp	 DWORD PTR [eax+4], 0
  0000f	75 04		 jne	 SHORT $LN6@CloseAllCo
; Line 245
  00011	eb 75		 jmp	 SHORT $lb_return$9
  00013	eb 73		 jmp	 SHORT $lb_return$9
$LN6@CloseAllCo:
; Line 248
  00015	c7 45 f8 01 00
	00 00		 mov	 DWORD PTR _i$[ebp], 1
  0001c	eb 07		 jmp	 SHORT $LN4@CloseAllCo
$LN3@CloseAllCo:
  0001e	8b 45 f8	 mov	 eax, DWORD PTR _i$[ebp]
  00021	40		 inc	 eax
  00022	89 45 f8	 mov	 DWORD PTR _i$[ebp], eax
$LN4@CloseAllCo:
  00025	8b 45 fc	 mov	 eax, DWORD PTR _this$[ebp]
  00028	8b 4d f8	 mov	 ecx, DWORD PTR _i$[ebp]
  0002b	3b 48 34	 cmp	 ecx, DWORD PTR [eax+52]
  0002e	77 51		 ja	 SHORT $LN2@CloseAllCo
; Line 250
  00030	8b 45 fc	 mov	 eax, DWORD PTR _this$[ebp]
  00033	8b 40 04	 mov	 eax, DWORD PTR [eax+4]
  00036	8b 4d f8	 mov	 ecx, DWORD PTR _i$[ebp]
  00039	83 3c c8 00	 cmp	 DWORD PTR [eax+ecx*8], 0
  0003d	74 40		 je	 SHORT $LN1@CloseAllCo
; Line 254
  0003f	8b 45 fc	 mov	 eax, DWORD PTR _this$[ebp]
  00042	8b 40 04	 mov	 eax, DWORD PTR [eax+4]
  00045	8b 4d f8	 mov	 ecx, DWORD PTR _i$[ebp]
  00048	8b 0c c8	 mov	 ecx, DWORD PTR [eax+ecx*8]
  0004b	e8 00 00 00 00	 call	 ?CloseSocket@CConnection@@QAEXXZ ; CConnection::CloseSocket
; Line 255
  00050	8b 45 fc	 mov	 eax, DWORD PTR _this$[ebp]
  00053	8b 40 04	 mov	 eax, DWORD PTR [eax+4]
  00056	8b 4d f8	 mov	 ecx, DWORD PTR _i$[ebp]
  00059	ff 34 c8	 push	 DWORD PTR [eax+ecx*8]
  0005c	8b 4d fc	 mov	 ecx, DWORD PTR _this$[ebp]
  0005f	e8 00 00 00 00	 call	 ?FreeConnection@CNetwork@@AAEXPAVCConnection@@@Z ; CNetwork::FreeConnection
; Line 256
  00064	8b 45 fc	 mov	 eax, DWORD PTR _this$[ebp]
  00067	8b 40 04	 mov	 eax, DWORD PTR [eax+4]
  0006a	8b 4d f8	 mov	 ecx, DWORD PTR _i$[ebp]
  0006d	83 24 c8 00	 and	 DWORD PTR [eax+ecx*8], 0
; Line 257
  00071	8b 45 fc	 mov	 eax, DWORD PTR _this$[ebp]
  00074	8b 40 04	 mov	 eax, DWORD PTR [eax+4]
  00077	8b 4d f8	 mov	 ecx, DWORD PTR _i$[ebp]
  0007a	83 64 c8 04 00	 and	 DWORD PTR [eax+ecx*8+4], 0
$LN1@CloseAllCo:
; Line 260
  0007f	eb 9d		 jmp	 SHORT $LN3@CloseAllCo
$LN2@CloseAllCo:
; Line 261
  00081	8b 45 fc	 mov	 eax, DWORD PTR _this$[ebp]
  00084	83 60 30 00	 and	 DWORD PTR [eax+48], 0
$lb_return$9:
; Line 264
  00088	8b e5		 mov	 esp, ebp
  0008a	5d		 pop	 ebp
  0008b	c3		 ret	 0
?CloseAllConnection@CNetwork@@QAEXXZ ENDP		; CNetwork::CloseAllConnection
_TEXT	ENDS
; Function compile flags: /Odspy
_TEXT	SEGMENT
_this$ = -24						; size = 4
_txt$ = -20						; size = 128
__$ArrayPad$ = 108					; size = 4
_ip$ = 120						; size = 4
_port$ = 124						; size = 2
?StartServer@CNetwork@@QAEHPADG@Z PROC			; CNetwork::StartServer
; _this$ = ecx
; File e:\github\mso_code\4dyuchinet_latest\network.cpp
; Line 182
  00000	55		 push	 ebp
  00001	8d 6c 24 90	 lea	 ebp, DWORD PTR [esp-112]
  00005	81 ec 88 00 00
	00		 sub	 esp, 136		; 00000088H
  0000b	a1 00 00 00 00	 mov	 eax, DWORD PTR ___security_cookie
  00010	33 c5		 xor	 eax, ebp
  00012	89 45 6c	 mov	 DWORD PTR __$ArrayPad$[ebp], eax
  00015	89 4d e8	 mov	 DWORD PTR _this$[ebp], ecx
; Line 187
  00018	68 80 00 00 00	 push	 128			; 00000080H
  0001d	6a 00		 push	 0
  0001f	8d 45 ec	 lea	 eax, DWORD PTR _txt$[ebp]
  00022	50		 push	 eax
  00023	e8 00 00 00 00	 call	 _memset
  00028	83 c4 0c	 add	 esp, 12			; 0000000cH
; Line 190
  0002b	6a 00		 push	 0
  0002d	6a 01		 push	 1
  0002f	6a 02		 push	 2
  00031	ff 15 00 00 00
	00		 call	 DWORD PTR __imp__socket@12
  00037	8b 4d e8	 mov	 ecx, DWORD PTR _this$[ebp]
  0003a	89 41 38	 mov	 DWORD PTR [ecx+56], eax
; Line 192
  0003d	8b 45 e8	 mov	 eax, DWORD PTR _this$[ebp]
  00040	83 78 38 ff	 cmp	 DWORD PTR [eax+56], -1
  00044	75 20		 jne	 SHORT $LN3@StartServe
; Line 194
  00046	6a 00		 push	 0
  00048	68 00 00 00 00	 push	 OFFSET $SG91734
  0004d	68 00 00 00 00	 push	 OFFSET $SG91735
  00052	ff 15 00 00 00
	00		 call	 DWORD PTR __imp__GetActiveWindow@0
  00058	50		 push	 eax
  00059	ff 15 00 00 00
	00		 call	 DWORD PTR __imp__MessageBoxA@16
; Line 195
  0005f	33 c0		 xor	 eax, eax
  00061	e9 aa 00 00 00	 jmp	 $LN4@StartServe
$LN3@StartServe:
; Line 199
  00066	6a 02		 push	 2
  00068	58		 pop	 eax
  00069	8b 4d e8	 mov	 ecx, DWORD PTR _this$[ebp]
  0006c	66 89 41 3c	 mov	 WORD PTR [ecx+60], ax
; Line 200
  00070	ff 75 7c	 push	 DWORD PTR _port$[ebp]
  00073	ff 15 00 00 00
	00		 call	 DWORD PTR __imp__htons@4
  00079	8b 4d e8	 mov	 ecx, DWORD PTR _this$[ebp]
  0007c	66 89 41 3e	 mov	 WORD PTR [ecx+62], ax
; Line 201
  00080	ff 75 78	 push	 DWORD PTR _ip$[ebp]
  00083	ff 15 00 00 00
	00		 call	 DWORD PTR __imp__inet_addr@4
  00089	8b 4d e8	 mov	 ecx, DWORD PTR _this$[ebp]
  0008c	89 41 40	 mov	 DWORD PTR [ecx+64], eax
; Line 205
  0008f	6a 10		 push	 16			; 00000010H
  00091	8b 45 e8	 mov	 eax, DWORD PTR _this$[ebp]
  00094	83 c0 3c	 add	 eax, 60			; 0000003cH
  00097	50		 push	 eax
  00098	8b 45 e8	 mov	 eax, DWORD PTR _this$[ebp]
  0009b	ff 70 38	 push	 DWORD PTR [eax+56]
  0009e	ff 15 00 00 00
	00		 call	 DWORD PTR __imp__bind@12
  000a4	85 c0		 test	 eax, eax
  000a6	7d 17		 jge	 SHORT $LN2@StartServe
; Line 207
  000a8	8b 45 e8	 mov	 eax, DWORD PTR _this$[ebp]
  000ab	ff 70 38	 push	 DWORD PTR [eax+56]
  000ae	ff 15 00 00 00
	00		 call	 DWORD PTR __imp__closesocket@4
; Line 208
  000b4	8b 45 e8	 mov	 eax, DWORD PTR _this$[ebp]
  000b7	83 48 38 ff	 or	 DWORD PTR [eax+56], -1
; Line 210
  000bb	33 c0		 xor	 eax, eax
  000bd	eb 51		 jmp	 SHORT $LN4@StartServe
$LN2@StartServe:
; Line 214
  000bf	68 ff ff ff 7f	 push	 2147483647		; 7fffffffH
  000c4	8b 45 e8	 mov	 eax, DWORD PTR _this$[ebp]
  000c7	ff 70 38	 push	 DWORD PTR [eax+56]
  000ca	ff 15 00 00 00
	00		 call	 DWORD PTR __imp__listen@8
  000d0	85 c0		 test	 eax, eax
  000d2	7d 30		 jge	 SHORT $LN1@StartServe
; Line 216
  000d4	6a 00		 push	 0
  000d6	68 00 00 00 00	 push	 OFFSET $SG91740
  000db	68 00 00 00 00	 push	 OFFSET $SG91741
  000e0	ff 15 00 00 00
	00		 call	 DWORD PTR __imp__GetActiveWindow@0
  000e6	50		 push	 eax
  000e7	ff 15 00 00 00
	00		 call	 DWORD PTR __imp__MessageBoxA@16
; Line 217
  000ed	8b 45 e8	 mov	 eax, DWORD PTR _this$[ebp]
  000f0	ff 70 38	 push	 DWORD PTR [eax+56]
  000f3	ff 15 00 00 00
	00		 call	 DWORD PTR __imp__closesocket@4
; Line 218
  000f9	8b 45 e8	 mov	 eax, DWORD PTR _this$[ebp]
  000fc	83 48 38 ff	 or	 DWORD PTR [eax+56], -1
; Line 220
  00100	33 c0		 xor	 eax, eax
  00102	eb 0c		 jmp	 SHORT $LN4@StartServe
$LN1@StartServe:
; Line 223
  00104	ff 75 e8	 push	 DWORD PTR _this$[ebp]
  00107	e8 00 00 00 00	 call	 ?StartAcceptThread@@YAHPAVCNetwork@@@Z ; StartAcceptThread
  0010c	59		 pop	 ecx
; Line 225
  0010d	33 c0		 xor	 eax, eax
  0010f	40		 inc	 eax
$LN4@StartServe:
; Line 226
  00110	8b 4d 6c	 mov	 ecx, DWORD PTR __$ArrayPad$[ebp]
  00113	33 cd		 xor	 ecx, ebp
  00115	e8 00 00 00 00	 call	 @__security_check_cookie@4
  0011a	83 c5 70	 add	 ebp, 112		; 00000070H
  0011d	8b e5		 mov	 esp, ebp
  0011f	5d		 pop	 ebp
  00120	c2 08 00	 ret	 8
?StartServer@CNetwork@@QAEHPADG@Z ENDP			; CNetwork::StartServer
_TEXT	ENDS
; Function compile flags: /Odspy
_TEXT	SEGMENT
_this$ = -4						; size = 4
_szIP$ = 8						; size = 4
_wPort$ = 12						; size = 2
_SuccessFunc$ = 16					; size = 4
_FailFunc$ = 20						; size = 4
_pExt$ = 24						; size = 4
?ConnectToServer@CNetwork@@QAEHPADGP6GXKPAX@ZP6GX1@Z1@Z PROC ; CNetwork::ConnectToServer
; _this$ = ecx
; File e:\github\mso_code\4dyuchinet_latest\network.cpp
; Line 383
  00000	55		 push	 ebp
  00001	8b ec		 mov	 ebp, esp
  00003	51		 push	 ecx
  00004	89 4d fc	 mov	 DWORD PTR _this$[ebp], ecx
; Line 384
  00007	ff 75 18	 push	 DWORD PTR _pExt$[ebp]
  0000a	ff 75 fc	 push	 DWORD PTR _this$[ebp]
  0000d	ff 75 14	 push	 DWORD PTR _FailFunc$[ebp]
  00010	ff 75 10	 push	 DWORD PTR _SuccessFunc$[ebp]
  00013	ff 75 0c	 push	 DWORD PTR _wPort$[ebp]
  00016	ff 75 08	 push	 DWORD PTR _szIP$[ebp]
  00019	e8 00 00 00 00	 call	 ?Connect@@YAHPADGP6GXKPAX@ZP6GX1@ZPAVCNetwork@@1@Z ; Connect
  0001e	83 c4 18	 add	 esp, 24			; 00000018H
; Line 386
  00021	8b e5		 mov	 esp, ebp
  00023	5d		 pop	 ebp
  00024	c2 14 00	 ret	 20			; 00000014H
?ConnectToServer@CNetwork@@QAEHPADGP6GXKPAX@ZP6GX1@Z1@Z ENDP ; CNetwork::ConnectToServer
_TEXT	ENDS
; Function compile flags: /Odspy
_TEXT	SEGMENT
$T2 = -40						; size = 4
$T3 = -36						; size = 4
tv84 = -32						; size = 4
$T4 = -28						; size = 4
tv76 = -24						; size = 4
$T5 = -20						; size = 4
_this$ = -16						; size = 4
__$EHRec$ = -12						; size = 12
_size$ = 8						; size = 4
?SetBufferSizePerConnection@CNetwork@@QAEXK@Z PROC	; CNetwork::SetBufferSizePerConnection
; _this$ = ecx
; File e:\github\mso_code\4dyuchinet_latest\network.cpp
; Line 421
  00000	55		 push	 ebp
  00001	8b ec		 mov	 ebp, esp
  00003	6a ff		 push	 -1
  00005	68 00 00 00 00	 push	 __ehhandler$?SetBufferSizePerConnection@CNetwork@@QAEXK@Z
  0000a	64 a1 00 00 00
	00		 mov	 eax, DWORD PTR fs:0
  00010	50		 push	 eax
  00011	83 ec 1c	 sub	 esp, 28			; 0000001cH
  00014	a1 00 00 00 00	 mov	 eax, DWORD PTR ___security_cookie
  00019	33 c5		 xor	 eax, ebp
  0001b	50		 push	 eax
  0001c	8d 45 f4	 lea	 eax, DWORD PTR __$EHRec$[ebp]
  0001f	64 a3 00 00 00
	00		 mov	 DWORD PTR fs:0, eax
  00025	89 4d f0	 mov	 DWORD PTR _this$[ebp], ecx
; Line 422
  00028	8b 45 f0	 mov	 eax, DWORD PTR _this$[ebp]
  0002b	83 78 68 00	 cmp	 DWORD PTR [eax+104], 0
  0002f	75 09		 jne	 SHORT $LN1@SetBufferS
  00031	8b 45 f0	 mov	 eax, DWORD PTR _this$[ebp]
  00034	83 78 6c 00	 cmp	 DWORD PTR [eax+108], 0
  00038	74 05		 je	 SHORT $LN2@SetBufferS
$LN1@SetBufferS:
; Line 423
  0003a	e9 ae 00 00 00	 jmp	 $LN3@SetBufferS
$LN2@SetBufferS:
; Line 426
  0003f	6a 24		 push	 36			; 00000024H
  00041	e8 00 00 00 00	 call	 ??2@YAPAXI@Z		; operator new
  00046	59		 pop	 ecx
  00047	89 45 ec	 mov	 DWORD PTR $T5[ebp], eax
  0004a	83 65 fc 00	 and	 DWORD PTR __$EHRec$[ebp+8], 0
  0004e	83 7d ec 00	 cmp	 DWORD PTR $T5[ebp], 0
  00052	74 0d		 je	 SHORT $LN5@SetBufferS
  00054	8b 4d ec	 mov	 ecx, DWORD PTR $T5[ebp]
  00057	e8 00 00 00 00	 call	 ??0CDynamicMemoryContainer@@QAE@XZ ; CDynamicMemoryContainer::CDynamicMemoryContainer
  0005c	89 45 e8	 mov	 DWORD PTR tv76[ebp], eax
  0005f	eb 04		 jmp	 SHORT $LN6@SetBufferS
$LN5@SetBufferS:
  00061	83 65 e8 00	 and	 DWORD PTR tv76[ebp], 0
$LN6@SetBufferS:
  00065	8b 45 e8	 mov	 eax, DWORD PTR tv76[ebp]
  00068	89 45 dc	 mov	 DWORD PTR $T3[ebp], eax
  0006b	83 4d fc ff	 or	 DWORD PTR __$EHRec$[ebp+8], -1
  0006f	8b 45 f0	 mov	 eax, DWORD PTR _this$[ebp]
  00072	8b 4d dc	 mov	 ecx, DWORD PTR $T3[ebp]
  00075	89 48 6c	 mov	 DWORD PTR [eax+108], ecx
; Line 427
  00078	6a 24		 push	 36			; 00000024H
  0007a	e8 00 00 00 00	 call	 ??2@YAPAXI@Z		; operator new
  0007f	59		 pop	 ecx
  00080	89 45 e4	 mov	 DWORD PTR $T4[ebp], eax
  00083	c7 45 fc 01 00
	00 00		 mov	 DWORD PTR __$EHRec$[ebp+8], 1
  0008a	83 7d e4 00	 cmp	 DWORD PTR $T4[ebp], 0
  0008e	74 0d		 je	 SHORT $LN7@SetBufferS
  00090	8b 4d e4	 mov	 ecx, DWORD PTR $T4[ebp]
  00093	e8 00 00 00 00	 call	 ??0CDynamicMemoryContainer@@QAE@XZ ; CDynamicMemoryContainer::CDynamicMemoryContainer
  00098	89 45 e0	 mov	 DWORD PTR tv84[ebp], eax
  0009b	eb 04		 jmp	 SHORT $LN8@SetBufferS
$LN7@SetBufferS:
  0009d	83 65 e0 00	 and	 DWORD PTR tv84[ebp], 0
$LN8@SetBufferS:
  000a1	8b 45 e0	 mov	 eax, DWORD PTR tv84[ebp]
  000a4	89 45 d8	 mov	 DWORD PTR $T2[ebp], eax
  000a7	83 4d fc ff	 or	 DWORD PTR __$EHRec$[ebp+8], -1
  000ab	8b 45 f0	 mov	 eax, DWORD PTR _this$[ebp]
  000ae	8b 4d d8	 mov	 ecx, DWORD PTR $T2[ebp]
  000b1	89 48 68	 mov	 DWORD PTR [eax+104], ecx
; Line 428
  000b4	6a 00		 push	 0
  000b6	8b 45 f0	 mov	 eax, DWORD PTR _this$[ebp]
  000b9	ff 70 34	 push	 DWORD PTR [eax+52]
  000bc	6a 03		 push	 3
  000be	ff 75 08	 push	 DWORD PTR _size$[ebp]
  000c1	8b 45 f0	 mov	 eax, DWORD PTR _this$[ebp]
  000c4	8b 48 6c	 mov	 ecx, DWORD PTR [eax+108]
  000c7	e8 00 00 00 00	 call	 ?Initialize@CDynamicMemoryContainer@@QAEHKKKW4MEMORY_TYPE@@@Z ; CDynamicMemoryContainer::Initialize
; Line 429
  000cc	6a 01		 push	 1
  000ce	8b 45 f0	 mov	 eax, DWORD PTR _this$[ebp]
  000d1	ff 70 34	 push	 DWORD PTR [eax+52]
  000d4	6a 03		 push	 3
  000d6	ff 75 08	 push	 DWORD PTR _size$[ebp]
  000d9	8b 45 f0	 mov	 eax, DWORD PTR _this$[ebp]
  000dc	8b 48 68	 mov	 ecx, DWORD PTR [eax+104]
  000df	e8 00 00 00 00	 call	 ?Initialize@CDynamicMemoryContainer@@QAEHKKKW4MEMORY_TYPE@@@Z ; CDynamicMemoryContainer::Initialize
; Line 431
  000e4	8b 45 f0	 mov	 eax, DWORD PTR _this$[ebp]
  000e7	8b 4d 08	 mov	 ecx, DWORD PTR _size$[ebp]
  000ea	89 48 4c	 mov	 DWORD PTR [eax+76], ecx
$LN3@SetBufferS:
; Line 432
  000ed	8b 4d f4	 mov	 ecx, DWORD PTR __$EHRec$[ebp]
  000f0	64 89 0d 00 00
	00 00		 mov	 DWORD PTR fs:0, ecx
  000f7	59		 pop	 ecx
  000f8	8b e5		 mov	 esp, ebp
  000fa	5d		 pop	 ebp
  000fb	c2 04 00	 ret	 4
_TEXT	ENDS
text$x	SEGMENT
__unwindfunclet$?SetBufferSizePerConnection@CNetwork@@QAEXK@Z$0:
  00000	ff 75 ec	 push	 DWORD PTR $T5[ebp]
  00003	e8 00 00 00 00	 call	 ??3@YAXPAX@Z		; operator delete
  00008	59		 pop	 ecx
  00009	c3		 ret	 0
__unwindfunclet$?SetBufferSizePerConnection@CNetwork@@QAEXK@Z$1:
  0000a	ff 75 e4	 push	 DWORD PTR $T4[ebp]
  0000d	e8 00 00 00 00	 call	 ??3@YAXPAX@Z		; operator delete
  00012	59		 pop	 ecx
  00013	c3		 ret	 0
__ehhandler$?SetBufferSizePerConnection@CNetwork@@QAEXK@Z:
  00014	8b 54 24 08	 mov	 edx, DWORD PTR [esp+8]
  00018	8d 42 0c	 lea	 eax, DWORD PTR [edx+12]
  0001b	8b 4a e0	 mov	 ecx, DWORD PTR [edx-32]
  0001e	33 c8		 xor	 ecx, eax
  00020	e8 00 00 00 00	 call	 @__security_check_cookie@4
  00025	b8 00 00 00 00	 mov	 eax, OFFSET __ehfuncinfo$?SetBufferSizePerConnection@CNetwork@@QAEXK@Z
  0002a	e9 00 00 00 00	 jmp	 ___CxxFrameHandler3
text$x	ENDS
?SetBufferSizePerConnection@CNetwork@@QAEXK@Z ENDP	; CNetwork::SetBufferSizePerConnection
; Function compile flags: /Odspy
_TEXT	SEGMENT
_this$ = -4						; size = 4
_ppCon$ = 8						; size = 4
_dwConnectionIndex$ = 12				; size = 4
?GetConnection@CNetwork@@QAEXPAPAVCConnection@@K@Z PROC	; CNetwork::GetConnection
; _this$ = ecx
; File e:\github\mso_code\4dyuchinet_latest\network.cpp
; Line 229
  00000	55		 push	 ebp
  00001	8b ec		 mov	 ebp, esp
  00003	51		 push	 ecx
  00004	89 4d fc	 mov	 DWORD PTR _this$[ebp], ecx
; Line 231
  00007	8b 45 fc	 mov	 eax, DWORD PTR _this$[ebp]
  0000a	8b 4d 0c	 mov	 ecx, DWORD PTR _dwConnectionIndex$[ebp]
  0000d	3b 48 34	 cmp	 ecx, DWORD PTR [eax+52]
  00010	76 08		 jbe	 SHORT $LN2@GetConnect
; Line 232
  00012	8b 45 08	 mov	 eax, DWORD PTR _ppCon$[ebp]
  00015	83 20 00	 and	 DWORD PTR [eax], 0
; Line 233
  00018	eb 11		 jmp	 SHORT $LN3@GetConnect
$LN2@GetConnect:
; Line 234
  0001a	8b 45 fc	 mov	 eax, DWORD PTR _this$[ebp]
  0001d	8b 40 04	 mov	 eax, DWORD PTR [eax+4]
  00020	8b 4d 08	 mov	 ecx, DWORD PTR _ppCon$[ebp]
  00023	8b 55 0c	 mov	 edx, DWORD PTR _dwConnectionIndex$[ebp]
  00026	8b 04 d0	 mov	 eax, DWORD PTR [eax+edx*8]
  00029	89 01		 mov	 DWORD PTR [ecx], eax
$LN3@GetConnect:
; Line 237
  0002b	8b e5		 mov	 esp, ebp
  0002d	5d		 pop	 ebp
  0002e	c2 08 00	 ret	 8
?GetConnection@CNetwork@@QAEXPAPAVCConnection@@K@Z ENDP	; CNetwork::GetConnection
_TEXT	ENDS
; Function compile flags: /Odspy
_TEXT	SEGMENT
_bResult$ = -8						; size = 4
_this$ = -4						; size = 4
_index$ = 8						; size = 4
_pList$ = 12						; size = 4
_flag$ = 16						; size = 4
?Send@CNetwork@@QAEHKPAUPACKET_LIST@@K@Z PROC		; CNetwork::Send
; _this$ = ecx
; File e:\github\mso_code\4dyuchinet_latest\network.cpp
; Line 157
  00000	55		 push	 ebp
  00001	8b ec		 mov	 ebp, esp
  00003	51		 push	 ecx
  00004	51		 push	 ecx
  00005	89 4d fc	 mov	 DWORD PTR _this$[ebp], ecx
; Line 162
  00008	83 65 f8 00	 and	 DWORD PTR _bResult$[ebp], 0
; Line 164
  0000c	8b 45 fc	 mov	 eax, DWORD PTR _this$[ebp]
  0000f	8b 4d 08	 mov	 ecx, DWORD PTR _index$[ebp]
  00012	3b 48 34	 cmp	 ecx, DWORD PTR [eax+52]
  00015	76 04		 jbe	 SHORT $LN6@Send
; Line 165
  00017	eb 3a		 jmp	 SHORT $lb_return$9
  00019	eb 38		 jmp	 SHORT $lb_return$9
$LN6@Send:
; Line 167
  0001b	83 7d 08 00	 cmp	 DWORD PTR _index$[ebp], 0
  0001f	75 04		 jne	 SHORT $LN4@Send
; Line 168
  00021	eb 30		 jmp	 SHORT $lb_return$9
  00023	eb 2e		 jmp	 SHORT $lb_return$9
$LN4@Send:
; Line 170
  00025	8b 45 fc	 mov	 eax, DWORD PTR _this$[ebp]
  00028	8b 40 04	 mov	 eax, DWORD PTR [eax+4]
  0002b	8b 4d 08	 mov	 ecx, DWORD PTR _index$[ebp]
  0002e	81 7c c8 04 f5
	03 00 00	 cmp	 DWORD PTR [eax+ecx*8+4], 1013 ; 000003f5H
  00036	74 04		 je	 SHORT $LN2@Send
; Line 171
  00038	eb 19		 jmp	 SHORT $lb_return$9
  0003a	eb 17		 jmp	 SHORT $lb_return$9
$LN2@Send:
; Line 173
  0003c	ff 75 0c	 push	 DWORD PTR _pList$[ebp]
  0003f	8b 45 fc	 mov	 eax, DWORD PTR _this$[ebp]
  00042	8b 40 04	 mov	 eax, DWORD PTR [eax+4]
  00045	8b 4d 08	 mov	 ecx, DWORD PTR _index$[ebp]
  00048	8b 0c c8	 mov	 ecx, DWORD PTR [eax+ecx*8]
  0004b	e8 00 00 00 00	 call	 ?Send@CConnection@@QAEHPAUPACKET_LIST@@@Z ; CConnection::Send
  00050	89 45 f8	 mov	 DWORD PTR _bResult$[ebp], eax
$lb_return$9:
; Line 176
  00053	8b 45 f8	 mov	 eax, DWORD PTR _bResult$[ebp]
; Line 177
  00056	8b e5		 mov	 esp, ebp
  00058	5d		 pop	 ebp
  00059	c2 0c 00	 ret	 12			; 0000000cH
?Send@CNetwork@@QAEHKPAUPACKET_LIST@@K@Z ENDP		; CNetwork::Send
_TEXT	ENDS
; Function compile flags: /Odspy
_TEXT	SEGMENT
_bResult$ = -8						; size = 4
_this$ = -4						; size = 4
_index$ = 8						; size = 4
_pBuf$ = 12						; size = 4
_dwNum$ = 16						; size = 4
_flag$ = 20						; size = 4
?Send@CNetwork@@QAEHKPAU_WSABUF@@KK@Z PROC		; CNetwork::Send
; _this$ = ecx
; File e:\github\mso_code\4dyuchinet_latest\network.cpp
; Line 134
  00000	55		 push	 ebp
  00001	8b ec		 mov	 ebp, esp
  00003	51		 push	 ecx
  00004	51		 push	 ecx
  00005	89 4d fc	 mov	 DWORD PTR _this$[ebp], ecx
; Line 139
  00008	83 65 f8 00	 and	 DWORD PTR _bResult$[ebp], 0
; Line 141
  0000c	8b 45 fc	 mov	 eax, DWORD PTR _this$[ebp]
  0000f	8b 4d 08	 mov	 ecx, DWORD PTR _index$[ebp]
  00012	3b 48 34	 cmp	 ecx, DWORD PTR [eax+52]
  00015	76 04		 jbe	 SHORT $LN6@Send
; Line 142
  00017	eb 3d		 jmp	 SHORT $lb_return$9
  00019	eb 3b		 jmp	 SHORT $lb_return$9
$LN6@Send:
; Line 144
  0001b	83 7d 08 00	 cmp	 DWORD PTR _index$[ebp], 0
  0001f	75 04		 jne	 SHORT $LN4@Send
; Line 145
  00021	eb 33		 jmp	 SHORT $lb_return$9
  00023	eb 31		 jmp	 SHORT $lb_return$9
$LN4@Send:
; Line 147
  00025	8b 45 fc	 mov	 eax, DWORD PTR _this$[ebp]
  00028	8b 40 04	 mov	 eax, DWORD PTR [eax+4]
  0002b	8b 4d 08	 mov	 ecx, DWORD PTR _index$[ebp]
  0002e	81 7c c8 04 f5
	03 00 00	 cmp	 DWORD PTR [eax+ecx*8+4], 1013 ; 000003f5H
  00036	74 04		 je	 SHORT $LN2@Send
; Line 148
  00038	eb 1c		 jmp	 SHORT $lb_return$9
  0003a	eb 1a		 jmp	 SHORT $lb_return$9
$LN2@Send:
; Line 150
  0003c	ff 75 10	 push	 DWORD PTR _dwNum$[ebp]
  0003f	ff 75 0c	 push	 DWORD PTR _pBuf$[ebp]
  00042	8b 45 fc	 mov	 eax, DWORD PTR _this$[ebp]
  00045	8b 40 04	 mov	 eax, DWORD PTR [eax+4]
  00048	8b 4d 08	 mov	 ecx, DWORD PTR _index$[ebp]
  0004b	8b 0c c8	 mov	 ecx, DWORD PTR [eax+ecx*8]
  0004e	e8 00 00 00 00	 call	 ?Send@CConnection@@QAEHPAU_WSABUF@@K@Z ; CConnection::Send
  00053	89 45 f8	 mov	 DWORD PTR _bResult$[ebp], eax
$lb_return$9:
; Line 154
  00056	8b 45 f8	 mov	 eax, DWORD PTR _bResult$[ebp]
; Line 155
  00059	8b e5		 mov	 esp, ebp
  0005b	5d		 pop	 ebp
  0005c	c2 10 00	 ret	 16			; 00000010H
?Send@CNetwork@@QAEHKPAU_WSABUF@@KK@Z ENDP		; CNetwork::Send
_TEXT	ENDS
; Function compile flags: /Odspy
_TEXT	SEGMENT
_bResult$ = -8						; size = 4
_this$ = -4						; size = 4
_index$ = 8						; size = 4
_msg$ = 12						; size = 4
_length$ = 16						; size = 4
_flag$ = 20						; size = 4
?Send@CNetwork@@QAEHKPADKK@Z PROC			; CNetwork::Send
; _this$ = ecx
; File e:\github\mso_code\4dyuchinet_latest\network.cpp
; Line 112
  00000	55		 push	 ebp
  00001	8b ec		 mov	 ebp, esp
  00003	51		 push	 ecx
  00004	51		 push	 ecx
  00005	89 4d fc	 mov	 DWORD PTR _this$[ebp], ecx
; Line 117
  00008	83 65 f8 00	 and	 DWORD PTR _bResult$[ebp], 0
; Line 118
  0000c	8b 45 fc	 mov	 eax, DWORD PTR _this$[ebp]
  0000f	8b 4d 08	 mov	 ecx, DWORD PTR _index$[ebp]
  00012	3b 48 34	 cmp	 ecx, DWORD PTR [eax+52]
  00015	76 04		 jbe	 SHORT $LN6@Send
; Line 119
  00017	eb 3d		 jmp	 SHORT $lb_return$9
  00019	eb 3b		 jmp	 SHORT $lb_return$9
$LN6@Send:
; Line 121
  0001b	83 7d 08 00	 cmp	 DWORD PTR _index$[ebp], 0
  0001f	75 04		 jne	 SHORT $LN4@Send
; Line 122
  00021	eb 33		 jmp	 SHORT $lb_return$9
  00023	eb 31		 jmp	 SHORT $lb_return$9
$LN4@Send:
; Line 124
  00025	8b 45 fc	 mov	 eax, DWORD PTR _this$[ebp]
  00028	8b 40 04	 mov	 eax, DWORD PTR [eax+4]
  0002b	8b 4d 08	 mov	 ecx, DWORD PTR _index$[ebp]
  0002e	81 7c c8 04 f5
	03 00 00	 cmp	 DWORD PTR [eax+ecx*8+4], 1013 ; 000003f5H
  00036	74 04		 je	 SHORT $LN2@Send
; Line 125
  00038	eb 1c		 jmp	 SHORT $lb_return$9
  0003a	eb 1a		 jmp	 SHORT $lb_return$9
$LN2@Send:
; Line 128
  0003c	ff 75 10	 push	 DWORD PTR _length$[ebp]
  0003f	ff 75 0c	 push	 DWORD PTR _msg$[ebp]
  00042	8b 45 fc	 mov	 eax, DWORD PTR _this$[ebp]
  00045	8b 40 04	 mov	 eax, DWORD PTR [eax+4]
  00048	8b 4d 08	 mov	 ecx, DWORD PTR _index$[ebp]
  0004b	8b 0c c8	 mov	 ecx, DWORD PTR [eax+ecx*8]
  0004e	e8 00 00 00 00	 call	 ?Send@CConnection@@QAEHPADK@Z ; CConnection::Send
  00053	89 45 f8	 mov	 DWORD PTR _bResult$[ebp], eax
$lb_return$9:
; Line 131
  00056	8b 45 f8	 mov	 eax, DWORD PTR _bResult$[ebp]
; Line 132
  00059	8b e5		 mov	 esp, ebp
  0005b	5d		 pop	 ebp
  0005c	c2 10 00	 ret	 16			; 00000010H
?Send@CNetwork@@QAEHKPADKK@Z ENDP			; CNetwork::Send
_TEXT	ENDS
; Function compile flags: /Odspy
_TEXT	SEGMENT
_this$ = -20						; size = 4
$T1 = -16						; size = 4
$T2 = -12						; size = 4
$T3 = -8						; size = 4
$T4 = -4						; size = 4
_con$ = 8						; size = 4
_net_id$ = 12						; size = 4
?SetConnectionType@CNetwork@@QAEXPAVCConnection@@W4NETWORK_ID@@@Z PROC ; CNetwork::SetConnectionType
; _this$ = ecx
; File e:\github\mso_code\4dyuchinet_latest\network.cpp
; Line 388
  00000	55		 push	 ebp
  00001	8b ec		 mov	 ebp, esp
  00003	83 ec 14	 sub	 esp, 20			; 00000014H
  00006	89 4d ec	 mov	 DWORD PTR _this$[ebp], ecx
; Line 389
  00009	83 7d 0c 00	 cmp	 DWORD PTR _net_id$[ebp], 0
  0000d	75 40		 jne	 SHORT $LN4@SetConnect
; File e:\github\mso_code\4dyuchinet_latest\connection.h
; Line 35
  0000f	8b 45 08	 mov	 eax, DWORD PTR _con$[ebp]
  00012	8b 40 1c	 mov	 eax, DWORD PTR [eax+28]
  00015	89 45 fc	 mov	 DWORD PTR $T4[ebp], eax
; File e:\github\mso_code\4dyuchinet_latest\overlapped.h
; Line 73
  00018	8b 45 fc	 mov	 eax, DWORD PTR $T4[ebp]
  0001b	8b 40 14	 mov	 eax, DWORD PTR [eax+20]
  0001e	25 ff 00 ff ff	 and	 eax, -65281		; ffff00ffH
  00023	0d 00 01 00 00	 or	 eax, 256		; 00000100H
  00028	8b 4d fc	 mov	 ecx, DWORD PTR $T4[ebp]
  0002b	89 41 14	 mov	 DWORD PTR [ecx+20], eax
; File e:\github\mso_code\4dyuchinet_latest\connection.h
; Line 36
  0002e	8b 45 08	 mov	 eax, DWORD PTR _con$[ebp]
  00031	8b 40 20	 mov	 eax, DWORD PTR [eax+32]
  00034	89 45 f8	 mov	 DWORD PTR $T3[ebp], eax
; File e:\github\mso_code\4dyuchinet_latest\overlapped.h
; Line 73
  00037	8b 45 f8	 mov	 eax, DWORD PTR $T3[ebp]
  0003a	8b 40 14	 mov	 eax, DWORD PTR [eax+20]
  0003d	25 ff 00 ff ff	 and	 eax, -65281		; ffff00ffH
  00042	0d 00 01 00 00	 or	 eax, 256		; 00000100H
  00047	8b 4d f8	 mov	 ecx, DWORD PTR $T3[ebp]
  0004a	89 41 14	 mov	 DWORD PTR [ecx+20], eax
; File e:\github\mso_code\4dyuchinet_latest\network.cpp
; Line 394
  0004d	eb 62		 jmp	 SHORT $LN5@SetConnect
$LN4@SetConnect:
  0004f	81 7d 0c 00 00
	00 80		 cmp	 DWORD PTR _net_id$[ebp], -2147483648 ; 80000000H
  00056	75 40		 jne	 SHORT $LN2@SetConnect
; File e:\github\mso_code\4dyuchinet_latest\connection.h
; Line 35
  00058	8b 45 08	 mov	 eax, DWORD PTR _con$[ebp]
  0005b	8b 40 1c	 mov	 eax, DWORD PTR [eax+28]
  0005e	89 45 f4	 mov	 DWORD PTR $T2[ebp], eax
; File e:\github\mso_code\4dyuchinet_latest\overlapped.h
; Line 73
  00061	8b 45 f4	 mov	 eax, DWORD PTR $T2[ebp]
  00064	8b 40 14	 mov	 eax, DWORD PTR [eax+20]
  00067	25 ff 00 ff ff	 and	 eax, -65281		; ffff00ffH
  0006c	0d 00 01 00 00	 or	 eax, 256		; 00000100H
  00071	8b 4d f4	 mov	 ecx, DWORD PTR $T2[ebp]
  00074	89 41 14	 mov	 DWORD PTR [ecx+20], eax
; File e:\github\mso_code\4dyuchinet_latest\connection.h
; Line 36
  00077	8b 45 08	 mov	 eax, DWORD PTR _con$[ebp]
  0007a	8b 40 20	 mov	 eax, DWORD PTR [eax+32]
  0007d	89 45 f0	 mov	 DWORD PTR $T1[ebp], eax
; File e:\github\mso_code\4dyuchinet_latest\overlapped.h
; Line 73
  00080	8b 45 f0	 mov	 eax, DWORD PTR $T1[ebp]
  00083	8b 40 14	 mov	 eax, DWORD PTR [eax+20]
  00086	25 ff 00 ff ff	 and	 eax, -65281		; ffff00ffH
  0008b	0d 00 01 00 00	 or	 eax, 256		; 00000100H
  00090	8b 4d f0	 mov	 ecx, DWORD PTR $T1[ebp]
  00093	89 41 14	 mov	 DWORD PTR [ecx+20], eax
; File e:\github\mso_code\4dyuchinet_latest\network.cpp
; Line 402
  00096	eb 19		 jmp	 SHORT $LN5@SetConnect
$LN2@SetConnect:
; Line 403
  00098	6a 00		 push	 0
  0009a	68 00 00 00 00	 push	 OFFSET $SG91820
  0009f	68 00 00 00 00	 push	 OFFSET $SG91821
  000a4	ff 15 00 00 00
	00		 call	 DWORD PTR __imp__GetActiveWindow@0
  000aa	50		 push	 eax
  000ab	ff 15 00 00 00
	00		 call	 DWORD PTR __imp__MessageBoxA@16
$LN5@SetConnect:
; Line 405
  000b1	8b e5		 mov	 esp, ebp
  000b3	5d		 pop	 ebp
  000b4	c2 08 00	 ret	 8
?SetConnectionType@CNetwork@@QAEXPAVCConnection@@W4NETWORK_ID@@@Z ENDP ; CNetwork::SetConnectionType
_TEXT	ENDS
; Function compile flags: /Odspy
_TEXT	SEGMENT
_this$ = -8						; size = 4
_i$1 = -4						; size = 4
_pMsg$ = 8						; size = 4
_len$ = 12						; size = 4
_flag$ = 16						; size = 4
?Broadcast@CNetwork@@QAEXPADKK@Z PROC			; CNetwork::Broadcast
; _this$ = ecx
; File e:\github\mso_code\4dyuchinet_latest\network.cpp
; Line 408
  00000	55		 push	 ebp
  00001	8b ec		 mov	 ebp, esp
  00003	51		 push	 ecx
  00004	51		 push	 ecx
  00005	89 4d f8	 mov	 DWORD PTR _this$[ebp], ecx
; Line 409
  00008	c7 45 fc 01 00
	00 00		 mov	 DWORD PTR _i$1[ebp], 1
  0000f	eb 07		 jmp	 SHORT $LN6@Broadcast
$LN5@Broadcast:
  00011	8b 45 fc	 mov	 eax, DWORD PTR _i$1[ebp]
  00014	40		 inc	 eax
  00015	89 45 fc	 mov	 DWORD PTR _i$1[ebp], eax
$LN6@Broadcast:
  00018	8b 45 f8	 mov	 eax, DWORD PTR _this$[ebp]
  0001b	8b 4d fc	 mov	 ecx, DWORD PTR _i$1[ebp]
  0001e	3b 48 34	 cmp	 ecx, DWORD PTR [eax+52]
  00021	77 4d		 ja	 SHORT $LN7@Broadcast
; Line 411
  00023	8b 45 f8	 mov	 eax, DWORD PTR _this$[ebp]
  00026	8b 40 04	 mov	 eax, DWORD PTR [eax+4]
  00029	8b 4d fc	 mov	 ecx, DWORD PTR _i$1[ebp]
  0002c	83 3c c8 00	 cmp	 DWORD PTR [eax+ecx*8], 0
  00030	74 3c		 je	 SHORT $LN3@Broadcast
; Line 413
  00032	8b 45 f8	 mov	 eax, DWORD PTR _this$[ebp]
  00035	83 78 70 00	 cmp	 DWORD PTR [eax+112], 0
  00039	74 1c		 je	 SHORT $LN2@Broadcast
; Line 414
  0003b	ff 75 10	 push	 DWORD PTR _flag$[ebp]
  0003e	ff 75 0c	 push	 DWORD PTR _len$[ebp]
  00041	ff 75 08	 push	 DWORD PTR _pMsg$[ebp]
  00044	8b 45 f8	 mov	 eax, DWORD PTR _this$[ebp]
  00047	8b 40 04	 mov	 eax, DWORD PTR [eax+4]
  0004a	8b 4d fc	 mov	 ecx, DWORD PTR _i$1[ebp]
  0004d	8b 0c c8	 mov	 ecx, DWORD PTR [eax+ecx*8]
  00050	e8 00 00 00 00	 call	 ?Send@CConnection@@QAEHPADKK@Z ; CConnection::Send
; Line 415
  00055	eb 17		 jmp	 SHORT $LN3@Broadcast
$LN2@Broadcast:
; Line 416
  00057	ff 75 0c	 push	 DWORD PTR _len$[ebp]
  0005a	ff 75 08	 push	 DWORD PTR _pMsg$[ebp]
  0005d	8b 45 f8	 mov	 eax, DWORD PTR _this$[ebp]
  00060	8b 40 04	 mov	 eax, DWORD PTR [eax+4]
  00063	8b 4d fc	 mov	 ecx, DWORD PTR _i$1[ebp]
  00066	8b 0c c8	 mov	 ecx, DWORD PTR [eax+ecx*8]
  00069	e8 00 00 00 00	 call	 ?Send@CConnection@@QAEHPADK@Z ; CConnection::Send
$LN3@Broadcast:
; Line 418
  0006e	eb a1		 jmp	 SHORT $LN5@Broadcast
$LN7@Broadcast:
; Line 419
  00070	8b e5		 mov	 esp, ebp
  00072	5d		 pop	 ebp
  00073	c2 0c 00	 ret	 12			; 0000000cH
?Broadcast@CNetwork@@QAEXPADKK@Z ENDP			; CNetwork::Broadcast
_TEXT	ENDS
; Function compile flags: /Odspy
_TEXT	SEGMENT
$T1 = -12						; size = 4
_this$ = -8						; size = 4
_pCon$ = -4						; size = 4
_dwIndex$ = 8						; size = 4
?CompulsiveDisconnect@CNetwork@@QAEXK@Z PROC		; CNetwork::CompulsiveDisconnect
; _this$ = ecx
; File e:\github\mso_code\4dyuchinet_latest\network.cpp
; Line 63
  00000	55		 push	 ebp
  00001	8b ec		 mov	 ebp, esp
  00003	83 ec 0c	 sub	 esp, 12			; 0000000cH
  00006	89 4d f8	 mov	 DWORD PTR _this$[ebp], ecx
; Line 64
  00009	83 7d 08 00	 cmp	 DWORD PTR _dwIndex$[ebp], 0
  0000d	75 02		 jne	 SHORT $LN2@Compulsive
; Line 65
  0000f	eb 2a		 jmp	 SHORT $LN3@Compulsive
$LN2@Compulsive:
; Line 68
  00011	ff 75 08	 push	 DWORD PTR _dwIndex$[ebp]
  00014	8d 45 fc	 lea	 eax, DWORD PTR _pCon$[ebp]
  00017	50		 push	 eax
  00018	8b 4d f8	 mov	 ecx, DWORD PTR _this$[ebp]
  0001b	e8 00 00 00 00	 call	 ?GetConnection@CNetwork@@QAEXPAPAVCConnection@@K@Z ; CNetwork::GetConnection
; Line 70
  00020	83 7d fc 00	 cmp	 DWORD PTR _pCon$[ebp], 0
  00024	74 15		 je	 SHORT $LN3@Compulsive
; File e:\github\mso_code\4dyuchinet_latest\overlapped.h
; Line 69
  00026	8b 45 fc	 mov	 eax, DWORD PTR _pCon$[ebp]
  00029	8b 40 20	 mov	 eax, DWORD PTR [eax+32]
  0002c	8b 40 2c	 mov	 eax, DWORD PTR [eax+44]
  0002f	89 45 f4	 mov	 DWORD PTR $T1[ebp], eax
; File e:\github\mso_code\4dyuchinet_latest\network.cpp
; Line 72
  00032	ff 75 f4	 push	 DWORD PTR $T1[ebp]
  00035	e8 00 00 00 00	 call	 ?PostDisconnectEvent@@YAXK@Z ; PostDisconnectEvent
  0003a	59		 pop	 ecx
$LN3@Compulsive:
; Line 75
  0003b	8b e5		 mov	 esp, ebp
  0003d	5d		 pop	 ebp
  0003e	c2 04 00	 ret	 4
?CompulsiveDisconnect@CNetwork@@QAEXK@Z ENDP		; CNetwork::CompulsiveDisconnect
_TEXT	ENDS
; Function compile flags: /Odspy
_TEXT	SEGMENT
_result$ = -124						; size = 4
_this$ = -120						; size = 4
$T1 = -116						; size = 4
$T2 = -112						; size = 4
$T3 = -108						; size = 4
_dwBytes$ = -104					; size = 4
_alive$ = -100						; size = 4
_len$ = -96						; size = 4
$T4 = -92						; size = 4
_this$ = -88						; size = 4
_apType$ = -84						; size = 4
$T5 = -80						; size = 4
_dwConnectionIndex$ = -76				; size = 4
_this$ = -72						; size = 4
_pCon$ = -68						; size = 4
_addr$ = -64						; size = 16
_keep_alive$ = -48					; size = 12
_txt$ = -36						; size = 32
__$ArrayPad$ = -4					; size = 4
_socket$ = 8						; size = 4
?AddConnection@CNetwork@@QAEPAVCConnection@@I@Z PROC	; CNetwork::AddConnection
; _this$ = ecx
; File e:\github\mso_code\4dyuchinet_latest\network.cpp
; Line 315
  00000	55		 push	 ebp
  00001	8b ec		 mov	 ebp, esp
  00003	83 ec 7c	 sub	 esp, 124		; 0000007cH
  00006	a1 00 00 00 00	 mov	 eax, DWORD PTR ___security_cookie
  0000b	33 c5		 xor	 eax, ebp
  0000d	89 45 fc	 mov	 DWORD PTR __$ArrayPad$[ebp], eax
  00010	56		 push	 esi
  00011	57		 push	 edi
  00012	89 4d b8	 mov	 DWORD PTR _this$[ebp], ecx
; Line 318
  00015	83 65 bc 00	 and	 DWORD PTR _pCon$[ebp], 0
; Line 320
  00019	8b 45 b8	 mov	 eax, DWORD PTR _this$[ebp]
  0001c	83 c0 08	 add	 eax, 8
  0001f	50		 push	 eax
  00020	e8 00 00 00 00	 call	 ?ICAllocIndex@@YGKPAVCIndexCreator@@@Z ; ICAllocIndex
  00025	89 45 b4	 mov	 DWORD PTR _dwConnectionIndex$[ebp], eax
; Line 321
  00028	83 7d b4 00	 cmp	 DWORD PTR _dwConnectionIndex$[ebp], 0
  0002c	75 0a		 jne	 SHORT $LN4@AddConnect
; Line 322
  0002e	e9 d8 01 00 00	 jmp	 $lb_return$33
  00033	e9 d3 01 00 00	 jmp	 $lb_return$33
$LN4@AddConnect:
; Line 325
  00038	8b 4d b8	 mov	 ecx, DWORD PTR _this$[ebp]
  0003b	e8 00 00 00 00	 call	 ?AllocConnection@CNetwork@@AAEPAVCConnection@@XZ ; CNetwork::AllocConnection
  00040	89 45 bc	 mov	 DWORD PTR _pCon$[ebp], eax
; File e:\github\mso_code\4dyuchinet_latest\connection.h
; Line 68
  00043	8b 45 bc	 mov	 eax, DWORD PTR _pCon$[ebp]
  00046	8b 4d b8	 mov	 ecx, DWORD PTR _this$[ebp]
  00049	89 48 28	 mov	 DWORD PTR [eax+40], ecx
; File e:\github\mso_code\4dyuchinet_latest\network.h
; Line 80
  0004c	8b 45 b8	 mov	 eax, DWORD PTR _this$[ebp]
  0004f	8b 40 54	 mov	 eax, DWORD PTR [eax+84]
  00052	89 45 8c	 mov	 DWORD PTR $T1[ebp], eax
; Line 79
  00055	8b 45 b8	 mov	 eax, DWORD PTR _this$[ebp]
  00058	8b 40 50	 mov	 eax, DWORD PTR [eax+80]
  0005b	89 45 90	 mov	 DWORD PTR $T2[ebp], eax
; File e:\github\mso_code\4dyuchinet_latest\network.cpp
; Line 327
  0005e	ff 75 8c	 push	 DWORD PTR $T1[ebp]
  00061	ff 75 90	 push	 DWORD PTR $T2[ebp]
  00064	8b 45 b8	 mov	 eax, DWORD PTR _this$[ebp]
  00067	ff 70 4c	 push	 DWORD PTR [eax+76]
  0006a	ff 75 08	 push	 DWORD PTR _socket$[ebp]
  0006d	8b 4d bc	 mov	 ecx, DWORD PTR _pCon$[ebp]
  00070	e8 00 00 00 00	 call	 ?Initialize@CConnection@@QAEHIKHH@Z ; CConnection::Initialize
; File e:\github\mso_code\4dyuchinet_latest\connection.h
; Line 50
  00075	8b 45 bc	 mov	 eax, DWORD PTR _pCon$[ebp]
  00078	8b 4d b4	 mov	 ecx, DWORD PTR _dwConnectionIndex$[ebp]
  0007b	89 48 08	 mov	 DWORD PTR [eax+8], ecx
; File e:\github\mso_code\4dyuchinet_latest\network.cpp
; Line 330
  0007e	8b 45 b8	 mov	 eax, DWORD PTR _this$[ebp]
  00081	8b 40 04	 mov	 eax, DWORD PTR [eax+4]
  00084	8b 4d b4	 mov	 ecx, DWORD PTR _dwConnectionIndex$[ebp]
  00087	8b 55 bc	 mov	 edx, DWORD PTR _pCon$[ebp]
  0008a	89 14 c8	 mov	 DWORD PTR [eax+ecx*8], edx
; Line 331
  0008d	8b 45 b8	 mov	 eax, DWORD PTR _this$[ebp]
  00090	8b 40 04	 mov	 eax, DWORD PTR [eax+4]
  00093	8b 4d b4	 mov	 ecx, DWORD PTR _dwConnectionIndex$[ebp]
  00096	c7 44 c8 04 f5
	03 00 00	 mov	 DWORD PTR [eax+ecx*8+4], 1013 ; 000003f5H
; File e:\github\mso_code\4dyuchinet_latest\connection.h
; Line 55
  0009e	8b 45 bc	 mov	 eax, DWORD PTR _pCon$[ebp]
  000a1	c7 40 04 f5 03
	00 00		 mov	 DWORD PTR [eax+4], 1013	; 000003f5H
; Line 49
  000a8	8b 45 bc	 mov	 eax, DWORD PTR _pCon$[ebp]
  000ab	8b 40 08	 mov	 eax, DWORD PTR [eax+8]
  000ae	89 45 b0	 mov	 DWORD PTR $T5[ebp], eax
; File e:\github\mso_code\4dyuchinet_latest\network.cpp
; Line 334
  000b1	8b 45 b8	 mov	 eax, DWORD PTR _this$[ebp]
  000b4	8b 00		 mov	 eax, DWORD PTR [eax]
  000b6	89 45 ac	 mov	 DWORD PTR _apType$[ebp], eax
; File e:\github\mso_code\4dyuchinet_latest\connection.h
; Line 44
  000b9	8b 45 bc	 mov	 eax, DWORD PTR _pCon$[ebp]
  000bc	8b 40 1c	 mov	 eax, DWORD PTR [eax+28]
  000bf	89 45 88	 mov	 DWORD PTR _this$[ebp], eax
; File e:\github\mso_code\4dyuchinet_latest\overlapped.h
; Line 68
  000c2	8b 45 b0	 mov	 eax, DWORD PTR $T5[ebp]
  000c5	0b 45 ac	 or	 eax, DWORD PTR _apType$[ebp]
  000c8	8b 4d 88	 mov	 ecx, DWORD PTR _this$[ebp]
  000cb	89 41 2c	 mov	 DWORD PTR [ecx+44], eax
; File e:\github\mso_code\4dyuchinet_latest\connection.h
; Line 45
  000ce	8b 45 bc	 mov	 eax, DWORD PTR _pCon$[ebp]
  000d1	8b 40 20	 mov	 eax, DWORD PTR [eax+32]
  000d4	89 45 a8	 mov	 DWORD PTR _this$[ebp], eax
; File e:\github\mso_code\4dyuchinet_latest\overlapped.h
; Line 68
  000d7	8b 45 b0	 mov	 eax, DWORD PTR $T5[ebp]
  000da	0b 45 ac	 or	 eax, DWORD PTR _apType$[ebp]
  000dd	8b 4d a8	 mov	 ecx, DWORD PTR _this$[ebp]
  000e0	89 41 2c	 mov	 DWORD PTR [ecx+44], eax
; File e:\github\mso_code\4dyuchinet_latest\network.cpp
; Line 338
  000e3	33 c0		 xor	 eax, eax
  000e5	8d 7d c0	 lea	 edi, DWORD PTR _addr$[ebp]
  000e8	ab		 stosd
  000e9	ab		 stosd
  000ea	ab		 stosd
  000eb	ab		 stosd
; Line 341
  000ec	c7 45 a0 10 00
	00 00		 mov	 DWORD PTR _len$[ebp], 16 ; 00000010H
; Line 344
  000f3	8d 45 a0	 lea	 eax, DWORD PTR _len$[ebp]
  000f6	50		 push	 eax
  000f7	8d 45 c0	 lea	 eax, DWORD PTR _addr$[ebp]
  000fa	50		 push	 eax
  000fb	ff 75 08	 push	 DWORD PTR _socket$[ebp]
  000fe	ff 15 00 00 00
	00		 call	 DWORD PTR __imp__getpeername@12
  00104	89 45 84	 mov	 DWORD PTR _result$[ebp], eax
; File e:\github\mso_code\4dyuchinet_latest\connection.h
; Line 59
  00107	8b 7d bc	 mov	 edi, DWORD PTR _pCon$[ebp]
  0010a	83 c7 0c	 add	 edi, 12			; 0000000cH
  0010d	8d 75 c0	 lea	 esi, DWORD PTR _addr$[ebp]
  00110	a5		 movsd
  00111	a5		 movsd
  00112	a5		 movsd
  00113	a5		 movsd
; File e:\github\mso_code\4dyuchinet_latest\network.cpp
; Line 350
  00114	c7 45 9c 01 00
	00 00		 mov	 DWORD PTR _alive$[ebp], 1
; Line 351
  0011b	6a 04		 push	 4
  0011d	8d 45 9c	 lea	 eax, DWORD PTR _alive$[ebp]
  00120	50		 push	 eax
  00121	6a 08		 push	 8
  00123	68 ff ff 00 00	 push	 65535			; 0000ffffH
  00128	ff 75 08	 push	 DWORD PTR _socket$[ebp]
  0012b	ff 15 00 00 00
	00		 call	 DWORD PTR __imp__setsockopt@20
; Line 354
  00131	c7 45 d0 01 00
	00 00		 mov	 DWORD PTR _keep_alive$[ebp], 1
; Line 355
  00138	c7 45 d4 b8 0b
	00 00		 mov	 DWORD PTR _keep_alive$[ebp+4], 3000 ; 00000bb8H
; Line 356
  0013f	c7 45 d8 e8 03
	00 00		 mov	 DWORD PTR _keep_alive$[ebp+8], 1000 ; 000003e8H
; Line 359
  00146	83 65 98 00	 and	 DWORD PTR _dwBytes$[ebp], 0
; Line 361
  0014a	6a 00		 push	 0
  0014c	6a 00		 push	 0
  0014e	8d 45 98	 lea	 eax, DWORD PTR _dwBytes$[ebp]
  00151	50		 push	 eax
  00152	6a 0c		 push	 12			; 0000000cH
  00154	8d 45 d0	 lea	 eax, DWORD PTR _keep_alive$[ebp]
  00157	50		 push	 eax
  00158	6a 0c		 push	 12			; 0000000cH
  0015a	8d 45 d0	 lea	 eax, DWORD PTR _keep_alive$[ebp]
  0015d	50		 push	 eax
  0015e	68 04 00 00 98	 push	 -1744830460		; 98000004H
  00163	ff 75 08	 push	 DWORD PTR _socket$[ebp]
  00166	ff 15 00 00 00
	00		 call	 DWORD PTR __imp__WSAIoctl@36
; Line 363
  0016c	8b 45 b8	 mov	 eax, DWORD PTR _this$[ebp]
  0016f	ff 30		 push	 DWORD PTR [eax]
  00171	ff 75 bc	 push	 DWORD PTR _pCon$[ebp]
  00174	8b 4d b8	 mov	 ecx, DWORD PTR _this$[ebp]
  00177	e8 00 00 00 00	 call	 ?SetConnectionType@CNetwork@@QAEXPAVCConnection@@W4NETWORK_ID@@@Z ; CNetwork::SetConnectionType
; File e:\github\mso_code\4dyuchinet_latest\overlapped.h
; Line 69
  0017c	8b 45 bc	 mov	 eax, DWORD PTR _pCon$[ebp]
  0017f	8b 40 20	 mov	 eax, DWORD PTR [eax+32]
  00182	8b 40 2c	 mov	 eax, DWORD PTR [eax+44]
  00185	89 45 94	 mov	 DWORD PTR $T3[ebp], eax
; File e:\github\mso_code\4dyuchinet_latest\network.cpp
; Line 365
  00188	6a 00		 push	 0
  0018a	ff 75 94	 push	 DWORD PTR $T3[ebp]
  0018d	ff 35 00 00 00
	00		 push	 DWORD PTR ?g_hCompletionPort@@3PAXA ; g_hCompletionPort
  00193	ff 75 08	 push	 DWORD PTR _socket$[ebp]
  00196	ff 15 00 00 00
	00		 call	 DWORD PTR __imp__CreateIoCompletionPort@16
  0019c	85 c0		 test	 eax, eax
  0019e	75 1d		 jne	 SHORT $LN2@AddConnect
; Line 367
  001a0	6a 00		 push	 0
  001a2	68 00 00 00 00	 push	 OFFSET $SG91799
  001a7	68 00 00 00 00	 push	 OFFSET $SG91800
  001ac	ff 15 00 00 00
	00		 call	 DWORD PTR __imp__GetActiveWindow@0
  001b2	50		 push	 eax
  001b3	ff 15 00 00 00
	00		 call	 DWORD PTR __imp__MessageBoxA@16
; Line 368
  001b9	33 c0		 xor	 eax, eax
  001bb	eb 51		 jmp	 SHORT $LN5@AddConnect
$LN2@AddConnect:
; Line 371
  001bd	83 3d 00 00 00
	00 00		 cmp	 DWORD PTR ?g_pLogManager@@3PAVCLogManager@@A, 0 ; g_pLogManager
  001c4	74 38		 je	 SHORT $LN1@AddConnect
; File e:\github\mso_code\4dyuchinet_latest\connection.h
; Line 49
  001c6	8b 45 bc	 mov	 eax, DWORD PTR _pCon$[ebp]
  001c9	8b 40 08	 mov	 eax, DWORD PTR [eax+8]
  001cc	89 45 a4	 mov	 DWORD PTR $T4[ebp], eax
; File e:\github\mso_code\4dyuchinet_latest\network.cpp
; Line 374
  001cf	ff 75 a4	 push	 DWORD PTR $T4[ebp]
  001d2	68 00 00 00 00	 push	 OFFSET $SG91802
  001d7	8d 45 dc	 lea	 eax, DWORD PTR _txt$[ebp]
  001da	50		 push	 eax
  001db	ff 15 00 00 00
	00		 call	 DWORD PTR __imp__wsprintfA
  001e1	83 c4 0c	 add	 esp, 12			; 0000000cH
; Line 375
  001e4	8d 45 dc	 lea	 eax, DWORD PTR _txt$[ebp]
  001e7	50		 push	 eax
  001e8	ff 15 00 00 00
	00		 call	 DWORD PTR __imp__lstrlenA@4
  001ee	50		 push	 eax
  001ef	8d 45 dc	 lea	 eax, DWORD PTR _txt$[ebp]
  001f2	50		 push	 eax
  001f3	8b 0d 00 00 00
	00		 mov	 ecx, DWORD PTR ?g_pLogManager@@3PAVCLogManager@@A ; g_pLogManager
  001f9	e8 00 00 00 00	 call	 ?WriteLog@CLogManager@@QAEHPADK@Z ; CLogManager::WriteLog
$LN1@AddConnect:
; Line 377
  001fe	8b 45 b8	 mov	 eax, DWORD PTR _this$[ebp]
  00201	8b 40 30	 mov	 eax, DWORD PTR [eax+48]
  00204	40		 inc	 eax
  00205	8b 4d b8	 mov	 ecx, DWORD PTR _this$[ebp]
  00208	89 41 30	 mov	 DWORD PTR [ecx+48], eax
$lb_return$33:
; Line 380
  0020b	8b 45 bc	 mov	 eax, DWORD PTR _pCon$[ebp]
$LN5@AddConnect:
; Line 381
  0020e	5f		 pop	 edi
  0020f	5e		 pop	 esi
  00210	8b 4d fc	 mov	 ecx, DWORD PTR __$ArrayPad$[ebp]
  00213	33 cd		 xor	 ecx, ebp
  00215	e8 00 00 00 00	 call	 @__security_check_cookie@4
  0021a	8b e5		 mov	 esp, ebp
  0021c	5d		 pop	 ebp
  0021d	c2 04 00	 ret	 4
?AddConnection@CNetwork@@QAEPAVCConnection@@I@Z ENDP	; CNetwork::AddConnection
_TEXT	ENDS
; Function compile flags: /Odspy
_TEXT	SEGMENT
_this$ = -4						; size = 4
?ReleaseListenSocket@CNetwork@@QAEXXZ PROC		; CNetwork::ReleaseListenSocket
; _this$ = ecx
; File e:\github\mso_code\4dyuchinet_latest\network.cpp
; Line 57
  00000	55		 push	 ebp
  00001	8b ec		 mov	 ebp, esp
  00003	51		 push	 ecx
  00004	89 4d fc	 mov	 DWORD PTR _this$[ebp], ecx
; Line 58
  00007	8b 45 fc	 mov	 eax, DWORD PTR _this$[ebp]
  0000a	ff 70 74	 push	 DWORD PTR [eax+116]
  0000d	8b 45 fc	 mov	 eax, DWORD PTR _this$[ebp]
  00010	ff 70 38	 push	 DWORD PTR [eax+56]
  00013	e8 00 00 00 00	 call	 ?EndAcceptThread@@YAHIPAX@Z ; EndAcceptThread
  00018	59		 pop	 ecx
  00019	59		 pop	 ecx
; File e:\github\mso_code\4dyuchinet_latest\network.h
; Line 71
  0001a	8b 45 fc	 mov	 eax, DWORD PTR _this$[ebp]
  0001d	83 60 74 00	 and	 DWORD PTR [eax+116], 0
; File e:\github\mso_code\4dyuchinet_latest\network.cpp
; Line 60
  00021	8b e5		 mov	 esp, ebp
  00023	5d		 pop	 ebp
  00024	c3		 ret	 0
?ReleaseListenSocket@CNetwork@@QAEXXZ ENDP		; CNetwork::ReleaseListenSocket
_TEXT	ENDS
; Function compile flags: /Odspy
_TEXT	SEGMENT
_this$ = -8						; size = 4
_this$ = -4						; size = 4
_pCon$ = 8						; size = 4
?FreeConnection@CNetwork@@AAEXPAVCConnection@@@Z PROC	; CNetwork::FreeConnection
; _this$ = ecx
; File e:\github\mso_code\4dyuchinet_latest\network.cpp
; Line 96
  00000	55		 push	 ebp
  00001	8b ec		 mov	 ebp, esp
  00003	51		 push	 ecx
  00004	51		 push	 ecx
  00005	89 4d fc	 mov	 DWORD PTR _this$[ebp], ecx
; File e:\github\mso_code\4dyuchinet_latest\connection.h
; Line 37
  00008	8b 45 08	 mov	 eax, DWORD PTR _pCon$[ebp]
  0000b	83 60 24 00	 and	 DWORD PTR [eax+36], 0
; File e:\github\mso_code\4dyuchinet_latest\network.cpp
; Line 99
  0000f	8b 45 fc	 mov	 eax, DWORD PTR _this$[ebp]
  00012	83 78 28 00	 cmp	 DWORD PTR [eax+40], 0
  00016	75 14		 jne	 SHORT $LN2@FreeConnec
; Line 100
  00018	8b 45 fc	 mov	 eax, DWORD PTR _this$[ebp]
  0001b	8b 4d 08	 mov	 ecx, DWORD PTR _pCon$[ebp]
  0001e	89 48 20	 mov	 DWORD PTR [eax+32], ecx
  00021	8b 45 fc	 mov	 eax, DWORD PTR _this$[ebp]
  00024	8b 4d 08	 mov	 ecx, DWORD PTR _pCon$[ebp]
  00027	89 48 24	 mov	 DWORD PTR [eax+36], ecx
; Line 101
  0002a	eb 12		 jmp	 SHORT $LN1@FreeConnec
$LN2@FreeConnec:
; Line 102
  0002c	8b 45 fc	 mov	 eax, DWORD PTR _this$[ebp]
  0002f	8b 40 24	 mov	 eax, DWORD PTR [eax+36]
  00032	89 45 f8	 mov	 DWORD PTR _this$[ebp], eax
; File e:\github\mso_code\4dyuchinet_latest\connection.h
; Line 37
  00035	8b 45 f8	 mov	 eax, DWORD PTR _this$[ebp]
  00038	8b 4d 08	 mov	 ecx, DWORD PTR _pCon$[ebp]
  0003b	89 48 24	 mov	 DWORD PTR [eax+36], ecx
$LN1@FreeConnec:
; File e:\github\mso_code\4dyuchinet_latest\network.cpp
; Line 104
  0003e	8b 45 fc	 mov	 eax, DWORD PTR _this$[ebp]
  00041	8b 4d 08	 mov	 ecx, DWORD PTR _pCon$[ebp]
  00044	89 48 24	 mov	 DWORD PTR [eax+36], ecx
; Line 105
  00047	8b 45 fc	 mov	 eax, DWORD PTR _this$[ebp]
  0004a	8b 40 28	 mov	 eax, DWORD PTR [eax+40]
  0004d	40		 inc	 eax
  0004e	8b 4d fc	 mov	 ecx, DWORD PTR _this$[ebp]
  00051	89 41 28	 mov	 DWORD PTR [ecx+40], eax
; Line 106
  00054	8b e5		 mov	 esp, ebp
  00056	5d		 pop	 ebp
  00057	c2 04 00	 ret	 4
?FreeConnection@CNetwork@@AAEXPAVCConnection@@@Z ENDP	; CNetwork::FreeConnection
_TEXT	ENDS
; Function compile flags: /Odspy
_TEXT	SEGMENT
$T2 = -36						; size = 4
$T3 = -32						; size = 4
tv73 = -28						; size = 4
$T4 = -24						; size = 4
_pCon$ = -20						; size = 4
_this$ = -16						; size = 4
__$EHRec$ = -12						; size = 12
?AllocConnection@CNetwork@@AAEPAVCConnection@@XZ PROC	; CNetwork::AllocConnection
; _this$ = ecx
; File e:\github\mso_code\4dyuchinet_latest\network.cpp
; Line 77
  00000	55		 push	 ebp
  00001	8b ec		 mov	 ebp, esp
  00003	6a ff		 push	 -1
  00005	68 00 00 00 00	 push	 __ehhandler$?AllocConnection@CNetwork@@AAEPAVCConnection@@XZ
  0000a	64 a1 00 00 00
	00		 mov	 eax, DWORD PTR fs:0
  00010	50		 push	 eax
  00011	83 ec 18	 sub	 esp, 24			; 00000018H
  00014	a1 00 00 00 00	 mov	 eax, DWORD PTR ___security_cookie
  00019	33 c5		 xor	 eax, ebp
  0001b	50		 push	 eax
  0001c	8d 45 f4	 lea	 eax, DWORD PTR __$EHRec$[ebp]
  0001f	64 a3 00 00 00
	00		 mov	 DWORD PTR fs:0, eax
  00025	89 4d f0	 mov	 DWORD PTR _this$[ebp], ecx
; Line 78
  00028	83 65 ec 00	 and	 DWORD PTR _pCon$[ebp], 0
; Line 80
  0002c	8b 45 f0	 mov	 eax, DWORD PTR _this$[ebp]
  0002f	83 78 28 00	 cmp	 DWORD PTR [eax+40], 0
  00033	75 38		 jne	 SHORT $LN2@AllocConne
; Line 82
  00035	6a 2c		 push	 44			; 0000002cH
  00037	e8 00 00 00 00	 call	 ??2@YAPAXI@Z		; operator new
  0003c	59		 pop	 ecx
  0003d	89 45 e8	 mov	 DWORD PTR $T4[ebp], eax
  00040	83 65 fc 00	 and	 DWORD PTR __$EHRec$[ebp+8], 0
  00044	83 7d e8 00	 cmp	 DWORD PTR $T4[ebp], 0
  00048	74 0d		 je	 SHORT $LN5@AllocConne
  0004a	8b 4d e8	 mov	 ecx, DWORD PTR $T4[ebp]
  0004d	e8 00 00 00 00	 call	 ??0CConnection@@QAE@XZ	; CConnection::CConnection
  00052	89 45 e4	 mov	 DWORD PTR tv73[ebp], eax
  00055	eb 04		 jmp	 SHORT $LN6@AllocConne
$LN5@AllocConne:
  00057	83 65 e4 00	 and	 DWORD PTR tv73[ebp], 0
$LN6@AllocConne:
  0005b	8b 45 e4	 mov	 eax, DWORD PTR tv73[ebp]
  0005e	89 45 e0	 mov	 DWORD PTR $T3[ebp], eax
  00061	83 4d fc ff	 or	 DWORD PTR __$EHRec$[ebp+8], -1
  00065	8b 45 e0	 mov	 eax, DWORD PTR $T3[ebp]
  00068	89 45 ec	 mov	 DWORD PTR _pCon$[ebp], eax
; Line 83
  0006b	eb 2b		 jmp	 SHORT $lb_return$11
$LN2@AllocConne:
; Line 86
  0006d	8b 45 f0	 mov	 eax, DWORD PTR _this$[ebp]
  00070	8b 40 20	 mov	 eax, DWORD PTR [eax+32]
  00073	89 45 ec	 mov	 DWORD PTR _pCon$[ebp], eax
; File e:\github\mso_code\4dyuchinet_latest\connection.h
; Line 38
  00076	8b 45 f0	 mov	 eax, DWORD PTR _this$[ebp]
  00079	8b 40 20	 mov	 eax, DWORD PTR [eax+32]
  0007c	8b 40 24	 mov	 eax, DWORD PTR [eax+36]
  0007f	89 45 dc	 mov	 DWORD PTR $T2[ebp], eax
; File e:\github\mso_code\4dyuchinet_latest\network.cpp
; Line 87
  00082	8b 45 f0	 mov	 eax, DWORD PTR _this$[ebp]
  00085	8b 4d dc	 mov	 ecx, DWORD PTR $T2[ebp]
  00088	89 48 20	 mov	 DWORD PTR [eax+32], ecx
; Line 89
  0008b	8b 45 f0	 mov	 eax, DWORD PTR _this$[ebp]
  0008e	8b 40 28	 mov	 eax, DWORD PTR [eax+40]
  00091	48		 dec	 eax
  00092	8b 4d f0	 mov	 ecx, DWORD PTR _this$[ebp]
  00095	89 41 28	 mov	 DWORD PTR [ecx+40], eax
$lb_return$11:
; Line 92
  00098	8b 45 ec	 mov	 eax, DWORD PTR _pCon$[ebp]
; Line 94
  0009b	8b 4d f4	 mov	 ecx, DWORD PTR __$EHRec$[ebp]
  0009e	64 89 0d 00 00
	00 00		 mov	 DWORD PTR fs:0, ecx
  000a5	59		 pop	 ecx
  000a6	8b e5		 mov	 esp, ebp
  000a8	5d		 pop	 ebp
  000a9	c3		 ret	 0
_TEXT	ENDS
text$x	SEGMENT
__unwindfunclet$?AllocConnection@CNetwork@@AAEPAVCConnection@@XZ$1:
  00000	ff 75 e8	 push	 DWORD PTR $T4[ebp]
  00003	e8 00 00 00 00	 call	 ??3@YAXPAX@Z		; operator delete
  00008	59		 pop	 ecx
  00009	c3		 ret	 0
__ehhandler$?AllocConnection@CNetwork@@AAEPAVCConnection@@XZ:
  0000a	8b 54 24 08	 mov	 edx, DWORD PTR [esp+8]
  0000e	8d 42 0c	 lea	 eax, DWORD PTR [edx+12]
  00011	8b 4a e4	 mov	 ecx, DWORD PTR [edx-28]
  00014	33 c8		 xor	 ecx, eax
  00016	e8 00 00 00 00	 call	 @__security_check_cookie@4
  0001b	b8 00 00 00 00	 mov	 eax, OFFSET __ehfuncinfo$?AllocConnection@CNetwork@@AAEPAVCConnection@@XZ
  00020	e9 00 00 00 00	 jmp	 ___CxxFrameHandler3
text$x	ENDS
?AllocConnection@CNetwork@@AAEPAVCConnection@@XZ ENDP	; CNetwork::AllocConnection
END
