; Listing generated by Microsoft (R) Optimizing Compiler Version 18.00.30501.0 

	TITLE	E:\GitHub\Mso_Code\4DyuchiNET_Latest\overlapped.cpp
	.686P
	.XMM
	include listing.inc
	.model	flat

INCLUDELIB LIBCMT
INCLUDELIB OLDNAMES

PUBLIC	??0COverlapped@@QAE@XZ				; COverlapped::COverlapped
PUBLIC	??1COverlapped@@QAE@XZ				; COverlapped::~COverlapped
; Function compile flags: /Odspy
_TEXT	SEGMENT
_this$ = -4						; size = 4
??1COverlapped@@QAE@XZ PROC				; COverlapped::~COverlapped
; _this$ = ecx
; File e:\github\mso_code\4dyuchinet_latest\overlapped.cpp
; Line 18
  00000	55		 push	 ebp
  00001	8b ec		 mov	 ebp, esp
  00003	51		 push	 ecx
  00004	89 4d fc	 mov	 DWORD PTR _this$[ebp], ecx
; Line 19
  00007	8b e5		 mov	 esp, ebp
  00009	5d		 pop	 ebp
  0000a	c3		 ret	 0
??1COverlapped@@QAE@XZ ENDP				; COverlapped::~COverlapped
_TEXT	ENDS
; Function compile flags: /Odspy
_TEXT	SEGMENT
_this$ = -4						; size = 4
??0COverlapped@@QAE@XZ PROC				; COverlapped::COverlapped
; _this$ = ecx
; File e:\github\mso_code\4dyuchinet_latest\overlapped.cpp
; Line 4
  00000	55		 push	 ebp
  00001	8b ec		 mov	 ebp, esp
  00003	51		 push	 ecx
  00004	57		 push	 edi
  00005	89 4d fc	 mov	 DWORD PTR _this$[ebp], ecx
; Line 5
  00008	33 c0		 xor	 eax, eax
  0000a	8b 7d fc	 mov	 edi, DWORD PTR _this$[ebp]
  0000d	ab		 stosd
  0000e	ab		 stosd
  0000f	ab		 stosd
  00010	ab		 stosd
  00011	ab		 stosd
; Line 6
  00012	8b 45 fc	 mov	 eax, DWORD PTR _this$[ebp]
  00015	83 60 14 00	 and	 DWORD PTR [eax+20], 0
; Line 7
  00019	8b 45 fc	 mov	 eax, DWORD PTR _this$[ebp]
  0001c	83 60 18 00	 and	 DWORD PTR [eax+24], 0
; Line 8
  00020	8b 45 fc	 mov	 eax, DWORD PTR _this$[ebp]
  00023	83 60 1c 00	 and	 DWORD PTR [eax+28], 0
; Line 9
  00027	8b 45 fc	 mov	 eax, DWORD PTR _this$[ebp]
  0002a	83 60 20 00	 and	 DWORD PTR [eax+32], 0
; Line 10
  0002e	8b 45 fc	 mov	 eax, DWORD PTR _this$[ebp]
  00031	83 60 24 00	 and	 DWORD PTR [eax+36], 0
; Line 11
  00035	8b 45 fc	 mov	 eax, DWORD PTR _this$[ebp]
  00038	83 60 28 00	 and	 DWORD PTR [eax+40], 0
; Line 12
  0003c	8b 45 fc	 mov	 eax, DWORD PTR _this$[ebp]
  0003f	83 60 2c 00	 and	 DWORD PTR [eax+44], 0
; Line 15
  00043	8b 45 fc	 mov	 eax, DWORD PTR _this$[ebp]
  00046	5f		 pop	 edi
  00047	8b e5		 mov	 esp, ebp
  00049	5d		 pop	 ebp
  0004a	c3		 ret	 0
??0COverlapped@@QAE@XZ ENDP				; COverlapped::COverlapped
_TEXT	ENDS
END
